(lp0
(dp1
Vis_blanked
p2
I00
sVend
p3
V2016-02-19T00:30:00Z
p4
sVpid
p5
Vp03j5mfy
p6
sVstart
p7
V2016-02-19T00:00:00Z
p8
sVis_repeat
p9
I00
sVduration
p10
I1800
sVprogramme
p11
(dp12
Vis_legacy_media
p13
I00
sVtitle
p14
V19/02/2016
p15
sVmedia
p16
(dp17
Vexpires
p18
V2016-03-20T00:30:00Z
p19
sVavailability
p20
V28 days left to listen
p21
sVformat
p22
Vaudio
p23
ssVimage
p24
(dp25
Vpid
p26
Vp01lcbf6
p27
ssVavailable_until
p28
V2016-03-20T00:30:00Z
p29
sVpid
p30
Vb0707vyh
p31
sVis_available_mediaset_pc_sd
p32
I01
sVshort_synopsis
p33
VThe latest national and international news from BBC Radio 4.
p34
sVfirst_broadcast_date
p35
V2016-02-19T00:00:00Z
p36
sVownership
p37
(dp38
Vservice
p39
(dp40
Vtype
p41
Vradio
p42
sVid
p43
Vbbc_radio_four
p44
sVkey
p45
Vradio4
p46
sVtitle
p47
VBBC Radio 4
p48
sssVposition
p49
NsVduration
p50
I1800
sVmedia_type
p51
Vaudio
p52
sVactual_start
p53
V2016-02-19T00:34:29Z
p54
sVtype
p55
Vepisode
p56
sVdisplay_titles
p57
(dp58
Vsubtitle
p59
V19/02/2016
p60
sVtitle
p61
VMidnight News
p62
ssVprogramme
p63
(dp64
Vtitle
p65
VMidnight News
p66
sVimage
p67
(dp68
Vpid
p69
Vp01lcbf6
p70
ssVexpected_child_count
p71
NsVpid
p72
Vb00cs19l
p73
sVfirst_broadcast_date
p74
V2007-02-03T00:00:00Z
p75
sVownership
p76
(dp77
Vservice
p78
(dp79
Vtype
p80
Vradio
p81
sVid
p82
Vbbc_radio_four
p83
sVkey
p84
Vradio4
p85
sVtitle
p86
VBBC Radio 4
p87
sssVposition
p88
NsVtype
p89
Vbrand
p90
sssa(dp91
Vis_blanked
p92
I00
sVend
p93
V2016-02-19T00:48:00Z
p94
sVpid
p95
Vp03j5mg0
p96
sVstart
p97
V2016-02-19T00:30:00Z
p98
sVis_repeat
p99
I01
sVduration
p100
I1080
sVprogramme
p101
(dp102
Vis_legacy_media
p103
I00
sVtitle
p104
VEpisode 4
p105
sVmedia
p106
(dp107
Vexpires
p108
V2016-03-20T00:48:00Z
p109
sVavailability
p110
V28 days left to listen
p111
sVformat
p112
Vaudio
p113
ssVimage
p114
(dp115
Vpid
p116
Vp03hxj5z
p117
ssVavailable_until
p118
V2016-03-20T00:48:00Z
p119
sVpid
p120
Vb070h6wz
p121
sVis_available_mediaset_pc_sd
p122
I01
sVshort_synopsis
p123
VFranklin's opponents are preparing poisonous attacks to greet him on his return to America
p124
sVfirst_broadcast_date
p125
V2016-02-18T09:45:00Z
p126
sVownership
p127
(dp128
Vservice
p129
(dp130
Vtype
p131
Vradio
p132
sVid
p133
Vbbc_radio_four
p134
sVkey
p135
Vradio4
p136
sVtitle
p137
VBBC Radio 4
p138
sssVposition
p139
I4
sVduration
p140
I900
sVmedia_type
p141
Vaudio
p142
sVactual_start
p143
V2016-02-18T10:07:00Z
p144
sVtype
p145
Vepisode
p146
sVdisplay_titles
p147
(dp148
Vsubtitle
p149
VBenjamin Franklin in London, Episode 4
p150
sVtitle
p151
VBook of the Week
p152
ssVprogramme
p153
(dp154
Vtitle
p155
VBenjamin Franklin in London
p156
sVimage
p157
(dp158
Vpid
p159
Vp03hxj5z
p160
ssVexpected_child_count
p161
I5
sVpid
p162
Vb071c3cx
p163
sVfirst_broadcast_date
p164
V2016-02-15T09:45:00Z
p165
sVposition
p166
NsVtype
p167
Vseries
p168
sVprogramme
p169
(dp170
Vtitle
p171
VBook of the Week
p172
sVimage
p173
(dp174
Vpid
p175
Vp01lc1rh
p176
ssVexpected_child_count
p177
NsVpid
p178
Vb006qftk
p179
sVfirst_broadcast_date
p180
V2007-01-01T09:45:00Z
p181
sVownership
p182
(dp183
Vservice
p184
(dp185
Vtype
p186
Vradio
p187
sVid
p188
Vbbc_radio_four
p189
sVkey
p190
Vradio4
p191
sVtitle
p192
VBBC Radio 4
p193
sssVposition
p194
NsVtype
p195
Vbrand
p196
ssssa(dp197
Vis_blanked
p198
I00
sVend
p199
V2016-02-19T01:00:00Z
p200
sVpid
p201
Vp03j5mg1
p202
sVstart
p203
V2016-02-19T00:48:00Z
p204
sVis_repeat
p205
I00
sVduration
p206
I720
sVprogramme
p207
(dp208
Vis_legacy_media
p209
I00
sVtitle
p210
V19/02/2016
p211
sVmedia
p212
(dp213
Vexpires
p214
V2016-03-20T01:00:00Z
p215
sVavailability
p216
V28 days left to listen
p217
sVformat
p218
Vaudio
p219
ssVimage
p220
(dp221
Vpid
p222
Vp0368m65
p223
ssVavailable_until
p224
V2016-03-20T01:00:00Z
p225
sVpid
p226
Vb0707vzg
p227
sVis_available_mediaset_pc_sd
p228
I01
sVshort_synopsis
p229
VThe latest shipping forecast.
p230
sVfirst_broadcast_date
p231
V2016-02-19T00:48:00Z
p232
sVownership
p233
(dp234
Vservice
p235
(dp236
Vtype
p237
Vradio
p238
sVid
p239
Vbbc_radio_four
p240
sVkey
p241
Vradio4
p242
sVtitle
p243
VBBC Radio 4
p244
sssVposition
p245
NsVduration
p246
I660
sVmedia_type
p247
Vaudio
p248
sVactual_start
p249
V2016-02-19T01:03:34Z
p250
sVtype
p251
Vepisode
p252
sVdisplay_titles
p253
(dp254
Vsubtitle
p255
V19/02/2016
p256
sVtitle
p257
VShipping Forecast
p258
ssVprogramme
p259
(dp260
Vtitle
p261
VShipping Forecast
p262
sVimage
p263
(dp264
Vpid
p265
Vp0368m65
p266
ssVexpected_child_count
p267
NsVpid
p268
Vb006qfvv
p269
sVfirst_broadcast_date
p270
V2006-04-05T00:48:00+01:00
p271
sVownership
p272
(dp273
Vservice
p274
(dp275
Vtype
p276
Vradio
p277
sVid
p278
Vbbc_radio_four
p279
sVkey
p280
Vradio4
p281
sVtitle
p282
VBBC Radio 4
p283
sssVposition
p284
NsVtype
p285
Vbrand
p286
sssa(dp287
Vis_blanked
p288
I00
sVend
p289
V2016-02-19T05:20:00Z
p290
sVpid
p291
Vp03j5mg2
p292
sVstart
p293
V2016-02-19T01:00:00Z
p294
sVis_repeat
p295
I00
sVduration
p296
I15600
sVprogramme
p297
(dp298
Vis_legacy_media
p299
I00
sVtitle
p300
V19/02/2016
p301
sVimage
p302
(dp303
Vpid
p304
Vp01lchw0
p305
ssVpid
p306
Vb0707vzj
p307
sVis_available_mediaset_pc_sd
p308
I00
sVshort_synopsis
p309
VBBC Radio 4 joins the BBC World Service.
p310
sVfirst_broadcast_date
p311
V2016-02-19T01:00:00Z
p312
sVownership
p313
(dp314
Vservice
p315
(dp316
Vtype
p317
Vradio
p318
sVid
p319
Vbbc_world_service
p320
sVkey
p321
Vworldserviceradio
p322
sVtitle
p323
VBBC World Service
p324
sssVposition
p325
NsVduration
p326
I15600
sVmedia_type
p327
Vaudio
p328
sVtype
p329
Vepisode
p330
sVdisplay_titles
p331
(dp332
Vsubtitle
p333
V19/02/2016
p334
sVtitle
p335
VSelection of BBC World Service Programmes
p336
ssVprogramme
p337
(dp338
Vtitle
p339
VSelection of BBC World Service Programmes
p340
sVimage
p341
(dp342
Vpid
p343
Vp01lchw0
p344
ssVexpected_child_count
p345
NsVpid
p346
Vb006s54y
p347
sVfirst_broadcast_date
p348
V2007-01-06T01:00:00Z
p349
sVownership
p350
(dp351
Vservice
p352
(dp353
Vtype
p354
Vradio
p355
sVid
p356
Vbbc_world_service
p357
sVkey
p358
Vworldserviceradio
p359
sVtitle
p360
VBBC World Service
p361
sssVposition
p362
NsVtype
p363
Vbrand
p364
sssa(dp365
Vis_blanked
p366
I00
sVend
p367
V2016-02-19T05:30:00Z
p368
sVpid
p369
Vp03j5mg3
p370
sVstart
p371
V2016-02-19T05:20:00Z
p372
sVis_repeat
p373
I00
sVduration
p374
I600
sVprogramme
p375
(dp376
Vis_legacy_media
p377
I00
sVtitle
p378
V19/02/2016
p379
sVmedia
p380
(dp381
Vexpires
p382
V2016-03-20T05:30:00Z
p383
sVavailability
p384
V28 days left to listen
p385
sVformat
p386
Vaudio
p387
ssVimage
p388
(dp389
Vpid
p390
Vp0368m65
p391
ssVavailable_until
p392
V2016-03-20T05:30:00Z
p393
sVpid
p394
Vb0707vzl
p395
sVis_available_mediaset_pc_sd
p396
I01
sVshort_synopsis
p397
VThe latest shipping forecast.
p398
sVfirst_broadcast_date
p399
V2016-02-19T05:20:00Z
p400
sVownership
p401
(dp402
Vservice
p403
(dp404
Vtype
p405
Vradio
p406
sVid
p407
Vbbc_radio_four
p408
sVkey
p409
Vradio4
p410
sVtitle
p411
VBBC Radio 4
p412
sssVposition
p413
NsVduration
p414
I600
sVmedia_type
p415
Vaudio
p416
sVactual_start
p417
V2016-02-19T05:34:10Z
p418
sVtype
p419
Vepisode
p420
sVdisplay_titles
p421
(dp422
Vsubtitle
p423
V19/02/2016
p424
sVtitle
p425
VShipping Forecast
p426
ssVprogramme
p427
(dp428
Vtitle
p429
VShipping Forecast
p430
sVimage
p431
(dp432
Vpid
p433
Vp0368m65
p434
ssVexpected_child_count
p435
NsVpid
p436
Vb006qfvv
p437
sVfirst_broadcast_date
p438
V2006-04-05T00:48:00+01:00
p439
sVownership
p440
(dp441
Vservice
p442
(dp443
Vtype
p444
Vradio
p445
sVid
p446
Vbbc_radio_four
p447
sVkey
p448
Vradio4
p449
sVtitle
p450
VBBC Radio 4
p451
sssVposition
p452
NsVtype
p453
Vbrand
p454
sssa(dp455
Vis_blanked
p456
I00
sVend
p457
V2016-02-19T05:43:00Z
p458
sVpid
p459
Vp03j5mg4
p460
sVstart
p461
V2016-02-19T05:30:00Z
p462
sVis_repeat
p463
I00
sVduration
p464
I780
sVprogramme
p465
(dp466
Vis_legacy_media
p467
I00
sVtitle
p468
V19/02/2016
p469
sVmedia
p470
(dp471
Vexpires
p472
V2016-03-20T05:43:00Z
p473
sVavailability
p474
V28 days left to listen
p475
sVformat
p476
Vaudio
p477
ssVimage
p478
(dp479
Vpid
p480
Vp01lc375
p481
ssVavailable_until
p482
V2016-03-20T05:43:00Z
p483
sVpid
p484
Vb0707vzn
p485
sVis_available_mediaset_pc_sd
p486
I01
sVshort_synopsis
p487
VNews from BBC Radio 4.
p488
sVfirst_broadcast_date
p489
V2016-02-19T05:30:00Z
p490
sVownership
p491
(dp492
Vservice
p493
(dp494
Vtype
p495
Vradio
p496
sVid
p497
Vbbc_radio_four
p498
sVkey
p499
Vradio4
p500
sVtitle
p501
VBBC Radio 4
p502
sssVposition
p503
NsVduration
p504
I780
sVmedia_type
p505
Vaudio
p506
sVactual_start
p507
V2016-02-19T05:47:19Z
p508
sVtype
p509
Vepisode
p510
sVdisplay_titles
p511
(dp512
Vsubtitle
p513
V19/02/2016
p514
sVtitle
p515
VNews Briefing
p516
ssVprogramme
p517
(dp518
Vtitle
p519
VNews Briefing
p520
sVimage
p521
(dp522
Vpid
p523
Vp01lc375
p524
ssVexpected_child_count
p525
NsVpid
p526
Vb007rhyn
p527
sVfirst_broadcast_date
p528
V2007-02-03T05:30:00Z
p529
sVownership
p530
(dp531
Vservice
p532
(dp533
Vtype
p534
Vradio
p535
sVid
p536
Vbbc_radio_four
p537
sVkey
p538
Vradio4
p539
sVtitle
p540
VBBC Radio 4
p541
sssVposition
p542
NsVtype
p543
Vbrand
p544
sssa(dp545
Vis_blanked
p546
I00
sVend
p547
V2016-02-19T05:45:00Z
p548
sVpid
p549
Vp03j5mg5
p550
sVstart
p551
V2016-02-19T05:43:00Z
p552
sVis_repeat
p553
I00
sVduration
p554
I120
sVprogramme
p555
(dp556
Vis_legacy_media
p557
I00
sVtitle
p558
V19/02/2016
p559
sVmedia
p560
(dp561
Vexpires
p562
V2016-03-20T05:45:00Z
p563
sVavailability
p564
V28 days left to listen
p565
sVformat
p566
Vaudio
p567
ssVimage
p568
(dp569
Vpid
p570
Vp01lc206
p571
ssVavailable_until
p572
V2016-03-20T05:45:00Z
p573
sVpid
p574
Vb070v9y2
p575
sVis_available_mediaset_pc_sd
p576
I01
sVshort_synopsis
p577
VA spiritual comment and prayer to begin the day, with Tibetan Buddhist Alison Murdoch.
p578
sVfirst_broadcast_date
p579
V2016-02-19T05:43:00Z
p580
sVownership
p581
(dp582
Vservice
p583
(dp584
Vtype
p585
Vradio
p586
sVid
p587
Vbbc_radio_four
p588
sVkey
p589
Vradio4
p590
sVtitle
p591
VBBC Radio 4
p592
sssVposition
p593
NsVduration
p594
I120
sVmedia_type
p595
Vaudio
p596
sVactual_start
p597
V2016-02-19T05:49:04Z
p598
sVtype
p599
Vepisode
p600
sVdisplay_titles
p601
(dp602
Vsubtitle
p603
V19/02/2016
p604
sVtitle
p605
VPrayer for the Day
p606
ssVprogramme
p607
(dp608
Vtitle
p609
VPrayer for the Day
p610
sVimage
p611
(dp612
Vpid
p613
Vp01lc206
p614
ssVexpected_child_count
p615
NsVpid
p616
Vb006qmpj
p617
sVfirst_broadcast_date
p618
V2007-01-06T05:43:00Z
p619
sVownership
p620
(dp621
Vservice
p622
(dp623
Vtype
p624
Vradio
p625
sVid
p626
Vbbc_radio_four
p627
sVkey
p628
Vradio4
p629
sVtitle
p630
VBBC Radio 4
p631
sssVposition
p632
NsVtype
p633
Vbrand
p634
sssa(dp635
Vis_blanked
p636
I00
sVend
p637
V2016-02-19T05:58:00Z
p638
sVpid
p639
Vp03j5mg7
p640
sVstart
p641
V2016-02-19T05:45:00Z
p642
sVis_repeat
p643
I00
sVduration
p644
I780
sVprogramme
p645
(dp646
Vis_legacy_media
p647
I00
sVtitle
p648
V15 years since foot-and-mouth, Dementia among farmers, Food provenance passport scheme
p649
sVmedia
p650
(dp651
Vexpires
p652
V2016-03-20T05:58:00Z
p653
sVavailability
p654
V28 days left to listen
p655
sVformat
p656
Vaudio
p657
ssVimage
p658
(dp659
Vpid
p660
Vp01lqyv0
p661
ssVavailable_until
p662
V2016-03-20T05:58:00Z
p663
sVpid
p664
Vb070hscf
p665
sVis_available_mediaset_pc_sd
p666
I01
sVshort_synopsis
p667
VCaz Graham marks the 15th anniversary of the outbreak of foot-and-mouth.
p668
sVfirst_broadcast_date
p669
V2016-02-19T05:45:00Z
p670
sVownership
p671
(dp672
Vservice
p673
(dp674
Vtype
p675
Vradio
p676
sVid
p677
Vbbc_radio_four
p678
sVkey
p679
Vradio4
p680
sVtitle
p681
VBBC Radio 4
p682
sssVposition
p683
NsVduration
p684
I780
sVmedia_type
p685
Vaudio
p686
sVactual_start
p687
V2016-02-19T06:00:00Z
p688
sVtype
p689
Vepisode
p690
sVdisplay_titles
p691
(dp692
Vsubtitle
p693
V15 years since foot-and-mouth, Dementia among farmers, Food provenance passport scheme
p694
sVtitle
p695
VFarming Today
p696
ssVprogramme
p697
(dp698
Vtitle
p699
VFarming Today
p700
sVimage
p701
(dp702
Vpid
p703
Vp01lcqw7
p704
ssVexpected_child_count
p705
NsVpid
p706
Vb006qj8q
p707
sVfirst_broadcast_date
p708
V2007-01-06T06:35:00Z
p709
sVownership
p710
(dp711
Vservice
p712
(dp713
Vtype
p714
Vradio
p715
sVid
p716
Vbbc_radio_four
p717
sVkey
p718
Vradio4
p719
sVtitle
p720
VBBC Radio 4
p721
sssVposition
p722
NsVtype
p723
Vbrand
p724
sssa(dp725
Vis_blanked
p726
I00
sVend
p727
V2016-02-19T06:00:00Z
p728
sVpid
p729
Vp03j5mgc
p730
sVstart
p731
V2016-02-19T05:58:00Z
p732
sVis_repeat
p733
I01
sVduration
p734
I120
sVprogramme
p735
(dp736
Vis_legacy_media
p737
I00
sVtitle
p738
VRobin
p739
sVmedia
p740
(dp741
Vexpires
p742
NsVavailability
p743
VAvailable to listen
p744
sVformat
p745
Vaudio
p746
ssVimage
p747
(dp748
Vpid
p749
Vp01m5s82
p750
ssVpid
p751
Vb03k6slx
p752
sVis_available_mediaset_pc_sd
p753
I01
sVshort_synopsis
p754
VDavid Attenborough presents the robin.
p755
sVfirst_broadcast_date
p756
V2013-12-25T05:58:00Z
p757
sVownership
p758
(dp759
Vservice
p760
(dp761
Vtype
p762
Vradio
p763
sVid
p764
Vbbc_radio_four
p765
sVkey
p766
Vradio4
p767
sVtitle
p768
VBBC Radio 4
p769
sssVposition
p770
NsVduration
p771
I120
sVmedia_type
p772
Vaudio
p773
sVactual_start
p774
V2013-12-25T06:45:08Z
p775
sVtype
p776
Vepisode
p777
sVdisplay_titles
p778
(dp779
Vsubtitle
p780
VRobin
p781
sVtitle
p782
VTweet of the Day
p783
ssVprogramme
p784
(dp785
Vtitle
p786
VTweet of the Day
p787
sVimage
p788
(dp789
Vpid
p790
Vp02cc02b
p791
ssVexpected_child_count
p792
I265
sVpid
p793
Vb01s6xyk
p794
sVfirst_broadcast_date
p795
V2013-05-06T05:58:00+01:00
p796
sVownership
p797
(dp798
Vservice
p799
(dp800
Vtype
p801
Vradio
p802
sVid
p803
Vbbc_radio_four
p804
sVkey
p805
Vradio4
p806
sVtitle
p807
VBBC Radio 4
p808
sssVposition
p809
NsVtype
p810
Vbrand
p811
sssa(dp812
Vis_blanked
p813
I00
sVend
p814
V2016-02-19T09:00:00Z
p815
sVpid
p816
Vp03j8zjv
p817
sVstart
p818
V2016-02-19T06:00:00Z
p819
sVis_repeat
p820
I00
sVduration
p821
I10800
sVprogramme
p822
(dp823
Vis_legacy_media
p824
I00
sVtitle
p825
V19/02/2016
p826
sVmedia
p827
(dp828
Vexpires
p829
V2016-03-20T09:00:00Z
p830
sVavailability
p831
V28 days left to listen
p832
sVformat
p833
Vaudio
p834
ssVimage
p835
(dp836
Vpid
p837
Vp036d2vl
p838
ssVavailable_until
p839
V2016-03-20T09:00:00Z
p840
sVpid
p841
Vb070hsch
p842
sVis_available_mediaset_pc_sd
p843
I01
sVshort_synopsis
p844
VNews and current affairs. Includes Sports Desk, Weather and Thought for the Day.
p845
sVfirst_broadcast_date
p846
V2016-02-19T06:00:00Z
p847
sVownership
p848
(dp849
Vservice
p850
(dp851
Vtype
p852
Vradio
p853
sVid
p854
Vbbc_radio_four
p855
sVkey
p856
Vradio4
p857
sVtitle
p858
VBBC Radio 4
p859
sssVposition
p860
I21536
sVduration
p861
I10800
sVmedia_type
p862
Vaudio
p863
sVactual_start
p864
V2016-02-19T09:08:14Z
p865
sVtype
p866
Vepisode
p867
sVdisplay_titles
p868
(dp869
Vsubtitle
p870
V19/02/2016
p871
sVtitle
p872
VToday
p873
ssVprogramme
p874
(dp875
Vtitle
p876
VToday
p877
sVimage
p878
(dp879
Vpid
p880
Vp036d2vl
p881
ssVexpected_child_count
p882
NsVpid
p883
Vb006qj9z
p884
sVfirst_broadcast_date
p885
V1966-10-27T07:15:00Z
p886
sVownership
p887
(dp888
Vservice
p889
(dp890
Vtype
p891
Vradio
p892
sVid
p893
Vbbc_radio_four
p894
sVkey
p895
Vradio4
p896
sVtitle
p897
VBBC Radio 4
p898
sssVposition
p899
NsVtype
p900
Vbrand
p901
sssa(dp902
Vis_blanked
p903
I00
sVend
p904
V2016-02-19T09:45:00Z
p905
sVpid
p906
Vp03j8zjw
p907
sVstart
p908
V2016-02-19T09:00:00Z
p909
sVis_repeat
p910
I01
sVduration
p911
I2700
sVprogramme
p912
(dp913
Vis_legacy_media
p914
I00
sVtitle
p915
VBen Saunders
p916
sVmedia
p917
(dp918
Vexpires
p919
NsVavailability
p920
VAvailable to listen
p921
sVformat
p922
Vaudio
p923
ssVimage
p924
(dp925
Vpid
p926
Vp03j6lz9
p927
ssVpid
p928
Vb0709v49
p929
sVis_available_mediaset_pc_sd
p930
I01
sVshort_synopsis
p931
VKirsty Young talks to polar explorer Ben Saunders.
p932
sVfirst_broadcast_date
p933
V2016-02-14T11:15:00Z
p934
sVownership
p935
(dp936
Vservice
p937
(dp938
Vtype
p939
Vradio
p940
sVid
p941
Vbbc_radio_four
p942
sVkey
p943
Vradio4
p944
sVtitle
p945
VBBC Radio 4
p946
sssVposition
p947
NsVduration
p948
I2700
sVmedia_type
p949
Vaudio
p950
sVactual_start
p951
V2016-02-14T12:00:00Z
p952
sVtype
p953
Vepisode
p954
sVdisplay_titles
p955
(dp956
Vsubtitle
p957
VBen Saunders
p958
sVtitle
p959
VDesert Island Discs
p960
ssVprogramme
p961
(dp962
Vtitle
p963
VDesert Island Discs
p964
sVimage
p965
(dp966
Vpid
p967
Vp01lc1xv
p968
ssVexpected_child_count
p969
NsVpid
p970
Vb006qnmr
p971
sVfirst_broadcast_date
p972
V1942-01-29T19:00:00+01:00
p973
sVownership
p974
(dp975
Vservice
p976
(dp977
Vtype
p978
Vradio
p979
sVid
p980
Vbbc_radio_four
p981
sVkey
p982
Vradio4
p983
sVtitle
p984
VBBC Radio 4
p985
sssVposition
p986
NsVtype
p987
Vbrand
p988
sssa(dp989
Vis_blanked
p990
I00
sVend
p991
V2016-02-19T10:00:00Z
p992
sVpid
p993
Vp03j8zjz
p994
sVstart
p995
V2016-02-19T09:45:00Z
p996
sVis_repeat
p997
I00
sVduration
p998
I900
sVprogramme
p999
(dp1000
Vis_legacy_media
p1001
I00
sVtitle
p1002
VEpisode 5
p1003
sVmedia
p1004
(dp1005
Vexpires
p1006
V2016-03-21T00:48:00Z
p1007
sVavailability
p1008
V29 days left to listen
p1009
sVformat
p1010
Vaudio
p1011
ssVimage
p1012
(dp1013
Vpid
p1014
Vp03hxj5z
p1015
ssVavailable_until
p1016
V2016-03-21T00:48:00Z
p1017
sVpid
p1018
Vb070hsck
p1019
sVis_available_mediaset_pc_sd
p1020
I01
sVshort_synopsis
p1021
VIt is 1775, and Franklin is no longer of any political use in London.
p1022
sVfirst_broadcast_date
p1023
V2016-02-19T09:45:00Z
p1024
sVownership
p1025
(dp1026
Vservice
p1027
(dp1028
Vtype
p1029
Vradio
p1030
sVid
p1031
Vbbc_radio_four
p1032
sVkey
p1033
Vradio4
p1034
sVtitle
p1035
VBBC Radio 4
p1036
sssVposition
p1037
I5
sVduration
p1038
I900
sVmedia_type
p1039
Vaudio
p1040
sVactual_start
p1041
V2016-02-19T10:08:32Z
p1042
sVtype
p1043
Vepisode
p1044
sVdisplay_titles
p1045
(dp1046
Vsubtitle
p1047
VBenjamin Franklin in London, Episode 5
p1048
sVtitle
p1049
VBook of the Week
p1050
ssVprogramme
p1051
(dp1052
Vtitle
p1053
VBenjamin Franklin in London
p1054
sVimage
p1055
(dp1056
Vpid
p1057
Vp03hxj5z
p1058
ssVexpected_child_count
p1059
I5
sVpid
p1060
Vb071c3cx
p1061
sVfirst_broadcast_date
p1062
V2016-02-15T09:45:00Z
p1063
sVposition
p1064
NsVtype
p1065
Vseries
p1066
sVprogramme
p1067
(dp1068
Vtitle
p1069
VBook of the Week
p1070
sVimage
p1071
(dp1072
Vpid
p1073
Vp01lc1rh
p1074
ssVexpected_child_count
p1075
NsVpid
p1076
Vb006qftk
p1077
sVfirst_broadcast_date
p1078
V2007-01-01T09:45:00Z
p1079
sVownership
p1080
(dp1081
Vservice
p1082
(dp1083
Vtype
p1084
Vradio
p1085
sVid
p1086
Vbbc_radio_four
p1087
sVkey
p1088
Vradio4
p1089
sVtitle
p1090
VBBC Radio 4
p1091
sssVposition
p1092
NsVtype
p1093
Vbrand
p1094
ssssa(dp1095
Vis_blanked
p1096
I00
sVend
p1097
V2016-02-19T10:45:00Z
p1098
sVpid
p1099
Vp03j8zk4
p1100
sVstart
p1101
V2016-02-19T10:00:00Z
p1102
sVis_repeat
p1103
I00
sVduration
p1104
I2700
sVprogramme
p1105
(dp1106
Vis_legacy_media
p1107
I00
sVtitle
p1108
VLegal aid, Christine Delphy, Dating with a learning disability, Erica Jong, Facial hair
p1109
sVmedia
p1110
(dp1111
Vexpires
p1112
NsVavailability
p1113
VAvailable to listen
p1114
sVformat
p1115
Vaudio
p1116
ssVimage
p1117
(dp1118
Vpid
p1119
Vp03jz961
p1120
ssVpid
p1121
Vb070hscm
p1122
sVis_available_mediaset_pc_sd
p1123
I01
sVshort_synopsis
p1124
VDomestic violence, French feminism, making friends, fear of flying, accepting facial hair.
p1125
sVfirst_broadcast_date
p1126
V2016-02-19T10:00:00Z
p1127
sVownership
p1128
(dp1129
Vservice
p1130
(dp1131
Vtype
p1132
Vradio
p1133
sVid
p1134
Vbbc_radio_four
p1135
sVkey
p1136
Vradio4
p1137
sVtitle
p1138
VBBC Radio 4
p1139
sssVposition
p1140
NsVduration
p1141
I2700
sVmedia_type
p1142
Vaudio
p1143
sVactual_start
p1144
V2016-02-19T10:52:11Z
p1145
sVtype
p1146
Vepisode
p1147
sVdisplay_titles
p1148
(dp1149
Vsubtitle
p1150
VLegal aid, Christine Delphy, Dating with a learning disability, Erica Jong, Facial hair
p1151
sVtitle
p1152
VWoman's Hour
p1153
ssVprogramme
p1154
(dp1155
Vtitle
p1156
VWoman's Hour
p1157
sVimage
p1158
(dp1159
Vpid
p1160
Vp01svhcp
p1161
ssVexpected_child_count
p1162
NsVpid
p1163
Vb007qlvb
p1164
sVfirst_broadcast_date
p1165
V1948-02-02T14:00:00Z
p1166
sVownership
p1167
(dp1168
Vservice
p1169
(dp1170
Vtype
p1171
Vradio
p1172
sVid
p1173
Vbbc_radio_four
p1174
sVkey
p1175
Vradio4
p1176
sVtitle
p1177
VBBC Radio 4
p1178
sssVposition
p1179
NsVtype
p1180
Vbrand
p1181
sssa(dp1182
Vis_blanked
p1183
I00
sVend
p1184
V2016-02-19T11:00:00Z
p1185
sVpid
p1186
Vp03j8zk7
p1187
sVstart
p1188
V2016-02-19T10:45:00Z
p1189
sVis_repeat
p1190
I00
sVduration
p1191
I900
sVprogramme
p1192
(dp1193
Vis_legacy_media
p1194
I00
sVtitle
p1195
VEpisode 10
p1196
sVmedia
p1197
(dp1198
Vexpires
p1199
V2016-03-20T20:00:00Z
p1200
sVavailability
p1201
V29 days left to listen
p1202
sVformat
p1203
Vaudio
p1204
ssVimage
p1205
(dp1206
Vpid
p1207
Vp03h6j04
p1208
ssVavailable_until
p1209
V2016-03-20T20:00:00Z
p1210
sVpid
p1211
Vb070hscp
p1212
sVis_available_mediaset_pc_sd
p1213
I01
sVshort_synopsis
p1214
VLuke's dark night of the soul is over.
p1215
sVfirst_broadcast_date
p1216
V2016-02-19T10:45:00Z
p1217
sVownership
p1218
(dp1219
Vservice
p1220
(dp1221
Vtype
p1222
Vradio
p1223
sVid
p1224
Vbbc_radio_four
p1225
sVkey
p1226
Vradio4
p1227
sVtitle
p1228
VBBC Radio 4
p1229
sssVposition
p1230
I10
sVduration
p1231
I900
sVmedia_type
p1232
Vaudio
p1233
sVactual_start
p1234
V2016-02-19T11:04:24Z
p1235
sVtype
p1236
Vepisode
p1237
sVdisplay_titles
p1238
(dp1239
Vsubtitle
p1240
VHalfway Here, Episode 10
p1241
sVtitle
p1242
V15 Minute Drama
p1243
ssVprogramme
p1244
(dp1245
Vtitle
p1246
VHalfway Here
p1247
sVimage
p1248
(dp1249
Vpid
p1250
Vp03h6j04
p1251
ssVexpected_child_count
p1252
I10
sVpid
p1253
Vb070p6zz
p1254
sVfirst_broadcast_date
p1255
V2016-02-08T10:45:00Z
p1256
sVposition
p1257
NsVtype
p1258
Vseries
p1259
sVprogramme
p1260
(dp1261
Vtitle
p1262
V15 Minute Drama
p1263
sVimage
p1264
(dp1265
Vpid
p1266
Vp01ynknj
p1267
ssVexpected_child_count
p1268
NsVpid
p1269
Vb006qy2s
p1270
sVfirst_broadcast_date
p1271
V2007-01-19T19:45:00Z
p1272
sVownership
p1273
(dp1274
Vservice
p1275
(dp1276
Vtype
p1277
Vradio
p1278
sVid
p1279
Vbbc_radio_four
p1280
sVkey
p1281
Vradio4
p1282
sVtitle
p1283
VBBC Radio 4
p1284
sssVposition
p1285
NsVtype
p1286
Vbrand
p1287
ssssa(dp1288
Vis_blanked
p1289
I00
sVend
p1290
V2016-02-19T11:30:00Z
p1291
sVpid
p1292
Vp03j8zk8
p1293
sVstart
p1294
V2016-02-19T11:00:00Z
p1295
sVis_repeat
p1296
I00
sVduration
p1297
I1800
sVprogramme
p1298
(dp1299
Vis_legacy_media
p1300
I00
sVtitle
p1301
VChoose Life
p1302
sVmedia
p1303
(dp1304
Vexpires
p1305
NsVavailability
p1306
VAvailable to listen
p1307
sVformat
p1308
Vaudio
p1309
ssVimage
p1310
(dp1311
Vpid
p1312
Vp03jbmkd
p1313
ssVpid
p1314
Vb070hscr
p1315
sVis_available_mediaset_pc_sd
p1316
I01
sVshort_synopsis
p1317
VTwenty years after Trainspotting's release, the real-life addicts who inspired the actors.
p1318
sVfirst_broadcast_date
p1319
V2016-02-19T11:00:00Z
p1320
sVownership
p1321
(dp1322
Vservice
p1323
(dp1324
Vtype
p1325
Vradio
p1326
sVid
p1327
Vbbc_radio_four
p1328
sVkey
p1329
Vradio4
p1330
sVtitle
p1331
VBBC Radio 4
p1332
sssVposition
p1333
NsVduration
p1334
I1680
sVmedia_type
p1335
Vaudio
p1336
sVtype
p1337
Vepisode
p1338
sVdisplay_titles
p1339
(dp1340
Vsubtitle
p1341
V
p1342
sVtitle
p1343
VChoose Life
p1344
ssVactual_start
p1345
V2016-02-19T11:34:43Z
p1346
ssa(dp1347
Vis_blanked
p1348
I00
sVend
p1349
V2016-02-19T12:00:00Z
p1350
sVpid
p1351
Vp03j8zkb
p1352
sVstart
p1353
V2016-02-19T11:30:00Z
p1354
sVis_repeat
p1355
I01
sVduration
p1356
I1800
sVprogramme
p1357
(dp1358
Vis_legacy_media
p1359
I00
sVtitle
p1360
VEpisode 1
p1361
sVmedia
p1362
(dp1363
Vexpires
p1364
V2016-03-20T12:00:00Z
p1365
sVavailability
p1366
V28 days left to listen
p1367
sVformat
p1368
Vaudio
p1369
ssVimage
p1370
(dp1371
Vpid
p1372
Vp01tbc9y
p1373
ssVavailable_until
p1374
V2016-03-20T12:00:00Z
p1375
sVpid
p1376
Vb03szh9f
p1377
sVis_available_mediaset_pc_sd
p1378
I01
sVshort_synopsis
p1379
VSue Perkins puts four guests through the moral, ethical and comical wringers.
p1380
sVfirst_broadcast_date
p1381
V2014-02-04T18:30:00Z
p1382
sVownership
p1383
(dp1384
Vservice
p1385
(dp1386
Vtype
p1387
Vradio
p1388
sVid
p1389
Vbbc_radio_four
p1390
sVkey
p1391
Vradio4
p1392
sVtitle
p1393
VBBC Radio 4
p1394
sssVposition
p1395
I1
sVduration
p1396
I1800
sVmedia_type
p1397
Vaudio
p1398
sVactual_start
p1399
V2016-02-19T12:03:46Z
p1400
sVtype
p1401
Vepisode
p1402
sVdisplay_titles
p1403
(dp1404
Vsubtitle
p1405
VSeries 3, Episode 1
p1406
sVtitle
p1407
VDilemma
p1408
ssVprogramme
p1409
(dp1410
Vtitle
p1411
VSeries 3
p1412
sVimage
p1413
(dp1414
Vpid
p1415
Vp01tbc9y
p1416
ssVexpected_child_count
p1417
I6
sVpid
p1418
Vb03trvw0
p1419
sVfirst_broadcast_date
p1420
V2014-02-04T18:30:00Z
p1421
sVposition
p1422
I4
sVtype
p1423
Vseries
p1424
sVprogramme
p1425
(dp1426
Vtitle
p1427
VDilemma
p1428
sVimage
p1429
(dp1430
Vpid
p1431
Vp01tbc9y
p1432
ssVexpected_child_count
p1433
NsVpid
p1434
Vb01qsnlw
p1435
sVfirst_broadcast_date
p1436
V2011-11-13T19:15:00Z
p1437
sVownership
p1438
(dp1439
Vservice
p1440
(dp1441
Vtype
p1442
Vradio
p1443
sVid
p1444
Vbbc_radio_four
p1445
sVkey
p1446
Vradio4
p1447
sVtitle
p1448
VBBC Radio 4
p1449
sssVposition
p1450
NsVtype
p1451
Vbrand
p1452
ssssa(dp1453
Vis_blanked
p1454
I00
sVend
p1455
V2016-02-19T12:04:00Z
p1456
sVpid
p1457
Vp03j8zkc
p1458
sVstart
p1459
V2016-02-19T12:00:00Z
p1460
sVis_repeat
p1461
I00
sVduration
p1462
I240
sVprogramme
p1463
(dp1464
Vis_legacy_media
p1465
I00
sVtitle
p1466
V19/02/2016
p1467
sVmedia
p1468
(dp1469
Vexpires
p1470
V2016-03-20T12:04:00Z
p1471
sVavailability
p1472
V28 days left to listen
p1473
sVformat
p1474
Vaudio
p1475
ssVimage
p1476
(dp1477
Vpid
p1478
Vp0247vsb
p1479
ssVavailable_until
p1480
V2016-03-20T12:04:00Z
p1481
sVpid
p1482
Vb0707vzq
p1483
sVis_available_mediaset_pc_sd
p1484
I01
sVshort_synopsis
p1485
VThe latest national and international news from BBC Radio 4.
p1486
sVfirst_broadcast_date
p1487
V2016-02-19T12:00:00Z
p1488
sVownership
p1489
(dp1490
Vservice
p1491
(dp1492
Vtype
p1493
Vradio
p1494
sVid
p1495
Vbbc_radio_four
p1496
sVkey
p1497
Vradio4
p1498
sVtitle
p1499
VBBC Radio 4
p1500
sssVposition
p1501
NsVduration
p1502
I240
sVmedia_type
p1503
Vaudio
p1504
sVactual_start
p1505
V2016-02-19T12:12:14Z
p1506
sVtype
p1507
Vepisode
p1508
sVdisplay_titles
p1509
(dp1510
Vsubtitle
p1511
V19/02/2016
p1512
sVtitle
p1513
VNews Summary
p1514
ssVprogramme
p1515
(dp1516
Vtitle
p1517
VNews Summary
p1518
sVimage
p1519
(dp1520
Vpid
p1521
Vp0247vsb
p1522
ssVexpected_child_count
p1523
NsVpid
p1524
Vb04fc120
p1525
sVfirst_broadcast_date
p1526
V2014-08-11T12:00:00+01:00
p1527
sVownership
p1528
(dp1529
Vservice
p1530
(dp1531
Vtype
p1532
Vradio
p1533
sVid
p1534
Vbbc_radio_four
p1535
sVkey
p1536
Vradio4
p1537
sVtitle
p1538
VBBC Radio 4
p1539
sssVposition
p1540
NsVtype
p1541
Vbrand
p1542
sssa(dp1543
Vis_blanked
p1544
I00
sVend
p1545
V2016-02-19T12:15:00Z
p1546
sVpid
p1547
Vp03j8zkg
p1548
sVstart
p1549
V2016-02-19T12:04:00Z
p1550
sVis_repeat
p1551
I00
sVduration
p1552
I660
sVprogramme
p1553
(dp1554
Vis_legacy_media
p1555
I00
sVtitle
p1556
VThe Stellar Dustbin
p1557
sVmedia
p1558
(dp1559
Vexpires
p1560
NsVavailability
p1561
VAvailable to listen
p1562
sVformat
p1563
Vaudio
p1564
ssVimage
p1565
(dp1566
Vpid
p1567
Vp03j03z4
p1568
ssVpid
p1569
Vb070hv9m
p1570
sVis_available_mediaset_pc_sd
p1571
I01
sVshort_synopsis
p1572
VCan we send our waste into the sun? Drs Rutherford and Fry investigate.
p1573
sVfirst_broadcast_date
p1574
V2016-02-19T12:04:00Z
p1575
sVownership
p1576
(dp1577
Vservice
p1578
(dp1579
Vtype
p1580
Vradio
p1581
sVid
p1582
Vbbc_radio_four
p1583
sVkey
p1584
Vradio4
p1585
sVtitle
p1586
VBBC Radio 4
p1587
sssVposition
p1588
NsVduration
p1589
I660
sVmedia_type
p1590
Vaudio
p1591
sVactual_start
p1592
V2016-02-18T14:28:55Z
p1593
sVtype
p1594
Vepisode
p1595
sVdisplay_titles
p1596
(dp1597
Vsubtitle
p1598
VThe Stellar Dustbin
p1599
sVtitle
p1600
VThe Curious Cases of Rutherford & Fry
p1601
ssVprogramme
p1602
(dp1603
Vtitle
p1604
VThe Curious Cases of Rutherford & Fry
p1605
sVimage
p1606
(dp1607
Vpid
p1608
Vp03j03z4
p1609
ssVexpected_child_count
p1610
I5
sVpid
p1611
Vb071c3y7
p1612
sVfirst_broadcast_date
p1613
V2016-02-15T12:04:00Z
p1614
sVownership
p1615
(dp1616
Vservice
p1617
(dp1618
Vtype
p1619
Vradio
p1620
sVid
p1621
Vbbc_radio_four
p1622
sVkey
p1623
Vradio4
p1624
sVtitle
p1625
VBBC Radio 4
p1626
sssVposition
p1627
NsVtype
p1628
Vseries
p1629
sssa(dp1630
Vis_blanked
p1631
I00
sVend
p1632
V2016-02-19T12:57:00Z
p1633
sVpid
p1634
Vp03j8zkh
p1635
sVstart
p1636
V2016-02-19T12:15:00Z
p1637
sVis_repeat
p1638
I00
sVduration
p1639
I2520
sVprogramme
p1640
(dp1641
Vis_legacy_media
p1642
I00
sVtitle
p1643
VThe puppy trade, Efforts to improve how charities are run
p1644
sVmedia
p1645
(dp1646
Vexpires
p1647
NsVavailability
p1648
VAvailable to listen
p1649
sVformat
p1650
Vaudio
p1651
ssVimage
p1652
(dp1653
Vpid
p1654
Vp03jz1pd
p1655
ssVpid
p1656
Vb070hv9p
p1657
sVis_available_mediaset_pc_sd
p1658
I01
sVshort_synopsis
p1659
VPeter White explores how well charities are run. Plus a look at the trade in puppies.
p1660
sVfirst_broadcast_date
p1661
V2016-02-19T12:15:00Z
p1662
sVownership
p1663
(dp1664
Vservice
p1665
(dp1666
Vtype
p1667
Vradio
p1668
sVid
p1669
Vbbc_radio_four
p1670
sVkey
p1671
Vradio4
p1672
sVtitle
p1673
VBBC Radio 4
p1674
sssVposition
p1675
NsVduration
p1676
I2700
sVmedia_type
p1677
Vaudio
p1678
sVactual_start
p1679
V2016-02-19T13:01:32Z
p1680
sVtype
p1681
Vepisode
p1682
sVdisplay_titles
p1683
(dp1684
Vsubtitle
p1685
VThe puppy trade, Efforts to improve how charities are run
p1686
sVtitle
p1687
VYou and Yours
p1688
ssVprogramme
p1689
(dp1690
Vtitle
p1691
VYou and Yours
p1692
sVimage
p1693
(dp1694
Vpid
p1695
Vp01lc1qq
p1696
ssVexpected_child_count
p1697
NsVpid
p1698
Vb006qps9
p1699
sVfirst_broadcast_date
p1700
V2006-04-05T12:00:00+01:00
p1701
sVownership
p1702
(dp1703
Vservice
p1704
(dp1705
Vtype
p1706
Vradio
p1707
sVid
p1708
Vbbc_radio_four
p1709
sVkey
p1710
Vradio4
p1711
sVtitle
p1712
VBBC Radio 4
p1713
sssVposition
p1714
NsVtype
p1715
Vbrand
p1716
sssa(dp1717
Vis_blanked
p1718
I00
sVend
p1719
V2016-02-19T13:00:00Z
p1720
sVpid
p1721
Vp03j8zkl
p1722
sVstart
p1723
V2016-02-19T12:57:00Z
p1724
sVis_repeat
p1725
I00
sVduration
p1726
I180
sVprogramme
p1727
(dp1728
Vis_legacy_media
p1729
I00
sVtitle
p1730
V19/02/2016
p1731
sVimage
p1732
(dp1733
Vpid
p1734
Vp01lc36f
p1735
ssVpid
p1736
Vb0707vzv
p1737
sVis_available_mediaset_pc_sd
p1738
I00
sVshort_synopsis
p1739
VWeather information.
p1740
sVfirst_broadcast_date
p1741
V2016-02-19T12:57:00Z
p1742
sVownership
p1743
(dp1744
Vservice
p1745
(dp1746
Vtype
p1747
Vradio
p1748
sVid
p1749
Vbbc_radio_four
p1750
sVkey
p1751
Vradio4
p1752
sVtitle
p1753
VBBC Radio 4
p1754
sssVposition
p1755
NsVduration
p1756
I180
sVmedia_type
p1757
Vaudio
p1758
sVtype
p1759
Vepisode
p1760
sVdisplay_titles
p1761
(dp1762
Vsubtitle
p1763
V19/02/2016
p1764
sVtitle
p1765
VWeather
p1766
ssVprogramme
p1767
(dp1768
Vtitle
p1769
VWeather
p1770
sVimage
p1771
(dp1772
Vpid
p1773
Vp01lc36f
p1774
ssVexpected_child_count
p1775
NsVpid
p1776
Vb007rn05
p1777
sVfirst_broadcast_date
p1778
V2006-04-05T12:57:00+01:00
p1779
sVownership
p1780
(dp1781
Vservice
p1782
(dp1783
Vtype
p1784
Vradio
p1785
sVid
p1786
Vbbc_radio_four
p1787
sVkey
p1788
Vradio4
p1789
sVtitle
p1790
VBBC Radio 4
p1791
sssVposition
p1792
NsVtype
p1793
Vbrand
p1794
sssa(dp1795
Vis_blanked
p1796
I00
sVend
p1797
V2016-02-19T13:45:00Z
p1798
sVpid
p1799
Vp03j8zkq
p1800
sVstart
p1801
V2016-02-19T13:00:00Z
p1802
sVis_repeat
p1803
I00
sVduration
p1804
I2700
sVprogramme
p1805
(dp1806
Vis_legacy_media
p1807
I00
sVtitle
p1808
V19/02/2016
p1809
sVmedia
p1810
(dp1811
Vexpires
p1812
V2016-03-20T16:04:00Z
p1813
sVavailability
p1814
V28 days left to listen
p1815
sVformat
p1816
Vaudio
p1817
ssVimage
p1818
(dp1819
Vpid
p1820
Vp0397n4z
p1821
ssVavailable_until
p1822
V2016-03-20T16:04:00Z
p1823
sVpid
p1824
Vb070hv9r
p1825
sVis_available_mediaset_pc_sd
p1826
I01
sVshort_synopsis
p1827
VAnalysis of news and current affairs, presented by Mark Mardell.
p1828
sVfirst_broadcast_date
p1829
V2016-02-19T13:00:00Z
p1830
sVownership
p1831
(dp1832
Vservice
p1833
(dp1834
Vtype
p1835
Vradio
p1836
sVid
p1837
Vbbc_radio_four
p1838
sVkey
p1839
Vradio4
p1840
sVtitle
p1841
VBBC Radio 4
p1842
sssVposition
p1843
NsVduration
p1844
I2700
sVmedia_type
p1845
Vaudio
p1846
sVactual_start
p1847
V2016-02-19T13:49:11Z
p1848
sVtype
p1849
Vepisode
p1850
sVdisplay_titles
p1851
(dp1852
Vsubtitle
p1853
V19/02/2016
p1854
sVtitle
p1855
VWorld at One
p1856
ssVprogramme
p1857
(dp1858
Vtitle
p1859
VWorld at One
p1860
sVimage
p1861
(dp1862
Vpid
p1863
Vp01lcjyc
p1864
ssVexpected_child_count
p1865
NsVpid
p1866
Vb006qptc
p1867
sVfirst_broadcast_date
p1868
V2007-01-19T13:00:00Z
p1869
sVownership
p1870
(dp1871
Vservice
p1872
(dp1873
Vtype
p1874
Vradio
p1875
sVid
p1876
Vbbc_radio_four
p1877
sVkey
p1878
Vradio4
p1879
sVtitle
p1880
VBBC Radio 4
p1881
sssVposition
p1882
NsVtype
p1883
Vbrand
p1884
sssa(dp1885
Vis_blanked
p1886
I00
sVend
p1887
V2016-02-19T14:00:00Z
p1888
sVpid
p1889
Vp03j8zkr
p1890
sVstart
p1891
V2016-02-19T13:45:00Z
p1892
sVis_repeat
p1893
I00
sVduration
p1894
I900
sVprogramme
p1895
(dp1896
Vis_legacy_media
p1897
I00
sVtitle
p1898
VJohn
p1899
sVmedia
p1900
(dp1901
Vexpires
p1902
NsVavailability
p1903
VAvailable to listen
p1904
sVformat
p1905
Vaudio
p1906
ssVimage
p1907
(dp1908
Vpid
p1909
Vp03j3ys1
p1910
ssVpid
p1911
Vb070v8bn
p1912
sVis_available_mediaset_pc_sd
p1913
I01
sVshort_synopsis
p1914
VPsychotherapist Susie Orbach meets John, a retired railway trade unionist.
p1915
sVfirst_broadcast_date
p1916
V2016-02-19T13:45:00Z
p1917
sVownership
p1918
(dp1919
Vservice
p1920
(dp1921
Vtype
p1922
Vradio
p1923
sVid
p1924
Vbbc_radio_four
p1925
sVkey
p1926
Vradio4
p1927
sVtitle
p1928
VBBC Radio 4
p1929
sssVposition
p1930
NsVduration
p1931
I900
sVmedia_type
p1932
Vaudio
p1933
sVactual_start
p1934
V2016-02-19T14:05:24Z
p1935
sVtype
p1936
Vepisode
p1937
sVdisplay_titles
p1938
(dp1939
Vsubtitle
p1940
VJohn
p1941
sVtitle
p1942
VIn Therapy
p1943
ssVprogramme
p1944
(dp1945
Vtitle
p1946
VIn Therapy
p1947
sVimage
p1948
(dp1949
Vpid
p1950
Vp03j3ys1
p1951
ssVexpected_child_count
p1952
I5
sVpid
p1953
Vb071c4cy
p1954
sVfirst_broadcast_date
p1955
V2016-02-15T13:45:00Z
p1956
sVownership
p1957
(dp1958
Vservice
p1959
(dp1960
Vtype
p1961
Vradio
p1962
sVid
p1963
Vbbc_radio_four
p1964
sVkey
p1965
Vradio4
p1966
sVtitle
p1967
VBBC Radio 4
p1968
sssVposition
p1969
NsVtype
p1970
Vseries
p1971
sssa(dp1972
Vis_blanked
p1973
I00
sVend
p1974
V2016-02-19T14:15:00Z
p1975
sVpid
p1976
Vp03j8zks
p1977
sVstart
p1978
V2016-02-19T14:00:00Z
p1979
sVis_repeat
p1980
I01
sVduration
p1981
I900
sVprogramme
p1982
(dp1983
Vis_legacy_media
p1984
I00
sVtitle
p1985
V18/02/2016
p1986
sVmedia
p1987
(dp1988
Vexpires
p1989
V2016-03-20T14:15:00Z
p1990
sVavailability
p1991
V28 days left to listen
p1992
sVformat
p1993
Vaudio
p1994
ssVimage
p1995
(dp1996
Vpid
p1997
Vp01t7xy8
p1998
ssVavailable_until
p1999
V2016-03-20T14:15:00Z
p2000
sVpid
p2001
Vb070hn0w
p2002
sVis_available_mediaset_pc_sd
p2003
I01
sVshort_synopsis
p2004
VIt is a big day for Brookfield.
p2005
sVfirst_broadcast_date
p2006
V2016-02-18T19:00:00Z
p2007
sVownership
p2008
(dp2009
Vservice
p2010
(dp2011
Vtype
p2012
Vradio
p2013
sVid
p2014
Vbbc_radio_four
p2015
sVkey
p2016
Vradio4
p2017
sVtitle
p2018
VBBC Radio 4
p2019
sssVposition
p2020
I17905
sVduration
p2021
I840
sVmedia_type
p2022
Vaudio
p2023
sVactual_start
p2024
V2016-02-18T19:10:00Z
p2025
sVtype
p2026
Vepisode
p2027
sVdisplay_titles
p2028
(dp2029
Vsubtitle
p2030
V18/02/2016
p2031
sVtitle
p2032
VThe Archers
p2033
ssVprogramme
p2034
(dp2035
Vtitle
p2036
VThe Archers
p2037
sVimage
p2038
(dp2039
Vpid
p2040
Vp01t7xy8
p2041
ssVexpected_child_count
p2042
NsVpid
p2043
Vb006qpgr
p2044
sVfirst_broadcast_date
p2045
V2007-01-19T14:00:00Z
p2046
sVownership
p2047
(dp2048
Vservice
p2049
(dp2050
Vtype
p2051
Vradio
p2052
sVid
p2053
Vbbc_radio_four
p2054
sVkey
p2055
Vradio4
p2056
sVtitle
p2057
VBBC Radio 4
p2058
sssVposition
p2059
NsVtype
p2060
Vbrand
p2061
sssa(dp2062
Vis_blanked
p2063
I00
sVend
p2064
V2016-02-19T15:00:00Z
p2065
sVpid
p2066
Vp03j8zkw
p2067
sVstart
p2068
V2016-02-19T14:15:00Z
p2069
sVis_repeat
p2070
I01
sVduration
p2071
I2700
sVprogramme
p2072
(dp2073
Vis_legacy_media
p2074
I00
sVtitle
p2075
VTittle Tattle
p2076
sVmedia
p2077
(dp2078
Vexpires
p2079
V2016-03-20T15:00:00Z
p2080
sVavailability
p2081
V28 days left to listen
p2082
sVformat
p2083
Vaudio
p2084
ssVimage
p2085
(dp2086
Vpid
p2087
Vp01xdm85
p2088
ssVavailable_until
p2089
V2016-03-20T15:00:00Z
p2090
sVpid
p2091
Vb0415hb8
p2092
sVis_available_mediaset_pc_sd
p2093
I01
sVshort_synopsis
p2094
VBy Martyn Hesford. 1964: Kenneth Williams bumps into Charles Hawtrey in a London tea room.
p2095
sVfirst_broadcast_date
p2096
V2014-04-21T14:15:00+01:00
p2097
sVownership
p2098
(dp2099
Vservice
p2100
(dp2101
Vtype
p2102
Vradio
p2103
sVid
p2104
Vbbc_radio_four
p2105
sVkey
p2106
Vradio4
p2107
sVtitle
p2108
VBBC Radio 4
p2109
sssVposition
p2110
NsVduration
p2111
I2700
sVmedia_type
p2112
Vaudio
p2113
sVactual_start
p2114
V2016-02-19T15:04:56Z
p2115
sVtype
p2116
Vepisode
p2117
sVdisplay_titles
p2118
(dp2119
Vsubtitle
p2120
VTittle Tattle
p2121
sVtitle
p2122
VAfternoon Drama
p2123
ssVprogramme
p2124
(dp2125
Vtitle
p2126
VAfternoon Drama
p2127
sVimage
p2128
(dp2129
Vpid
p2130
Vp01ynb8q
p2131
ssVexpected_child_count
p2132
NsVpid
p2133
Vb006qrzz
p2134
sVfirst_broadcast_date
p2135
V2002-06-02T15:00:00+01:00
p2136
sVownership
p2137
(dp2138
Vservice
p2139
(dp2140
Vtype
p2141
Vradio
p2142
sVid
p2143
Vbbc_radio_four
p2144
sVkey
p2145
Vradio4
p2146
sVtitle
p2147
VBBC Radio 4
p2148
sssVposition
p2149
NsVtype
p2150
Vbrand
p2151
sssa(dp2152
Vis_blanked
p2153
I00
sVend
p2154
V2016-02-19T15:45:00Z
p2155
sVpid
p2156
Vp03j8zkx
p2157
sVstart
p2158
V2016-02-19T15:00:00Z
p2159
sVis_repeat
p2160
I00
sVduration
p2161
I2700
sVprogramme
p2162
(dp2163
Vis_legacy_media
p2164
I00
sVtitle
p2165
VTutbury Castle
p2166
sVmedia
p2167
(dp2168
Vexpires
p2169
NsVavailability
p2170
VAvailable to listen
p2171
sVformat
p2172
Vaudio
p2173
ssVimage
p2174
(dp2175
Vpid
p2176
Vp03jwd2x
p2177
ssVpid
p2178
Vb070hxsb
p2179
sVis_available_mediaset_pc_sd
p2180
I01
sVshort_synopsis
p2181
VEric Robson hosts the horticultural panel programme from Tutbury Castle in Staffordshire.
p2182
sVfirst_broadcast_date
p2183
V2016-02-19T15:00:00Z
p2184
sVownership
p2185
(dp2186
Vservice
p2187
(dp2188
Vtype
p2189
Vradio
p2190
sVid
p2191
Vbbc_radio_four
p2192
sVkey
p2193
Vradio4
p2194
sVtitle
p2195
VBBC Radio 4
p2196
sssVposition
p2197
NsVduration
p2198
I2580
sVmedia_type
p2199
Vaudio
p2200
sVactual_start
p2201
V2016-02-19T15:49:08Z
p2202
sVtype
p2203
Vepisode
p2204
sVdisplay_titles
p2205
(dp2206
Vsubtitle
p2207
VTutbury Castle
p2208
sVtitle
p2209
VGardeners' Question Time
p2210
ssVprogramme
p2211
(dp2212
Vtitle
p2213
VGardeners' Question Time
p2214
sVimage
p2215
(dp2216
Vpid
p2217
Vp01m29jj
p2218
ssVexpected_child_count
p2219
NsVpid
p2220
Vb006qp2f
p2221
sVfirst_broadcast_date
p2222
V2007-01-03T15:00:00Z
p2223
sVownership
p2224
(dp2225
Vservice
p2226
(dp2227
Vtype
p2228
Vradio
p2229
sVid
p2230
Vbbc_radio_four
p2231
sVkey
p2232
Vradio4
p2233
sVtitle
p2234
VBBC Radio 4
p2235
sssVposition
p2236
NsVtype
p2237
Vbrand
p2238
sssa(dp2239
Vis_blanked
p2240
I00
sVend
p2241
V2016-02-19T16:00:00Z
p2242
sVpid
p2243
Vp03j8zl0
p2244
sVstart
p2245
V2016-02-19T15:45:00Z
p2246
sVis_repeat
p2247
I00
sVduration
p2248
I900
sVprogramme
p2249
(dp2250
Vis_legacy_media
p2251
I00
sVtitle
p2252
VWoman with a Little Pug
p2253
sVmedia
p2254
(dp2255
Vexpires
p2256
V2016-03-20T16:00:00Z
p2257
sVavailability
p2258
V28 days left to listen
p2259
sVformat
p2260
Vaudio
p2261
ssVimage
p2262
(dp2263
Vpid
p2264
Vp03jbqql
p2265
ssVavailable_until
p2266
V2016-03-20T16:00:00Z
p2267
sVpid
p2268
Vb070hxsd
p2269
sVis_available_mediaset_pc_sd
p2270
I01
sVshort_synopsis
p2271
VA philanderer meets a woman in Brighton. But have they met before? Read by Peter Firth.
p2272
sVfirst_broadcast_date
p2273
V2016-02-19T15:45:00Z
p2274
sVownership
p2275
(dp2276
Vservice
p2277
(dp2278
Vtype
p2279
Vradio
p2280
sVid
p2281
Vbbc_radio_four
p2282
sVkey
p2283
Vradio4
p2284
sVtitle
p2285
VBBC Radio 4
p2286
sssVposition
p2287
NsVduration
p2288
I900
sVmedia_type
p2289
Vaudio
p2290
sVactual_start
p2291
V2016-02-19T16:05:36Z
p2292
sVtype
p2293
Vepisode
p2294
sVdisplay_titles
p2295
(dp2296
Vsubtitle
p2297
VWoman with a Little Pug
p2298
sVtitle
p2299
VImagining Chekhov
p2300
ssVprogramme
p2301
(dp2302
Vtitle
p2303
VImagining Chekhov
p2304
sVimage
p2305
(dp2306
Vpid
p2307
Vp03jbqql
p2308
ssVexpected_child_count
p2309
I3
sVpid
p2310
Vb07218bw
p2311
sVfirst_broadcast_date
p2312
V2016-02-19T15:45:00Z
p2313
sVownership
p2314
(dp2315
Vservice
p2316
(dp2317
Vtype
p2318
Vradio
p2319
sVid
p2320
Vbbc_radio_four
p2321
sVkey
p2322
Vradio4
p2323
sVtitle
p2324
VBBC Radio 4
p2325
sssVposition
p2326
NsVtype
p2327
Vseries
p2328
sssa(dp2329
Vis_blanked
p2330
I00
sVend
p2331
V2016-02-19T16:30:00Z
p2332
sVpid
p2333
Vp03j8zl4
p2334
sVstart
p2335
V2016-02-19T16:00:00Z
p2336
sVis_repeat
p2337
I00
sVduration
p2338
I1800
sVprogramme
p2339
(dp2340
Vis_legacy_media
p2341
I00
sVtitle
p2342
VBoutros Boutros-Ghali, Edmonde Charles-Roux, Norman Hudis, Antonin Scalia, Harper Lee
p2343
sVmedia
p2344
(dp2345
Vexpires
p2346
NsVavailability
p2347
VAvailable to listen
p2348
sVformat
p2349
Vaudio
p2350
ssVimage
p2351
(dp2352
Vpid
p2353
Vp03k2px0
p2354
ssVpid
p2355
Vb070hxsg
p2356
sVis_available_mediaset_pc_sd
p2357
I01
sVshort_synopsis
p2358
VMatthew Bannister on a UN Secretary General, an editor, a screenwriter, a judge
p2359
sVfirst_broadcast_date
p2360
V2016-02-19T16:00:00Z
p2361
sVownership
p2362
(dp2363
Vservice
p2364
(dp2365
Vtype
p2366
Vradio
p2367
sVid
p2368
Vbbc_radio_four
p2369
sVkey
p2370
Vradio4
p2371
sVtitle
p2372
VBBC Radio 4
p2373
sssVposition
p2374
NsVduration
p2375
I1680
sVmedia_type
p2376
Vaudio
p2377
sVactual_start
p2378
V2016-02-19T16:34:20Z
p2379
sVtype
p2380
Vepisode
p2381
sVdisplay_titles
p2382
(dp2383
Vsubtitle
p2384
VBoutros Boutros-Ghali, Edmonde Charles-Roux, Norman Hudis, Antonin Scalia, Harper Lee
p2385
sVtitle
p2386
VLast Word
p2387
ssVprogramme
p2388
(dp2389
Vtitle
p2390
VLast Word
p2391
sVimage
p2392
(dp2393
Vpid
p2394
Vp01lcgdy
p2395
ssVexpected_child_count
p2396
NsVpid
p2397
Vb006qpmv
p2398
sVfirst_broadcast_date
p2399
V2007-01-19T16:00:00Z
p2400
sVownership
p2401
(dp2402
Vservice
p2403
(dp2404
Vtype
p2405
Vradio
p2406
sVid
p2407
Vbbc_radio_four
p2408
sVkey
p2409
Vradio4
p2410
sVtitle
p2411
VBBC Radio 4
p2412
sssVposition
p2413
NsVtype
p2414
Vbrand
p2415
sssa(dp2416
Vis_blanked
p2417
I00
sVend
p2418
V2016-02-19T16:55:00Z
p2419
sVpid
p2420
Vp03j8zl7
p2421
sVstart
p2422
V2016-02-19T16:30:00Z
p2423
sVis_repeat
p2424
I00
sVduration
p2425
I1500
sVprogramme
p2426
(dp2427
Vis_legacy_media
p2428
I00
sVtitle
p2429
VJunior doctors' strike, David Bowie's death
p2430
sVmedia
p2431
(dp2432
Vexpires
p2433
NsVavailability
p2434
VAvailable to listen
p2435
sVformat
p2436
Vaudio
p2437
ssVimage
p2438
(dp2439
Vpid
p2440
Vp01lcl96
p2441
ssVpid
p2442
Vb070hxsj
p2443
sVis_available_mediaset_pc_sd
p2444
I01
sVshort_synopsis
p2445
VCoverage of the junior doctors' strike and opinions on The Archers' Rob storyline.
p2446
sVfirst_broadcast_date
p2447
V2016-02-19T16:30:00Z
p2448
sVownership
p2449
(dp2450
Vservice
p2451
(dp2452
Vtype
p2453
Vradio
p2454
sVid
p2455
Vbbc_radio_four
p2456
sVkey
p2457
Vradio4
p2458
sVtitle
p2459
VBBC Radio 4
p2460
sssVposition
p2461
NsVduration
p2462
I1680
sVmedia_type
p2463
Vaudio
p2464
sVactual_start
p2465
V2016-02-19T16:58:47Z
p2466
sVtype
p2467
Vepisode
p2468
sVdisplay_titles
p2469
(dp2470
Vsubtitle
p2471
VJunior doctors' strike, David Bowie's death
p2472
sVtitle
p2473
VFeedback
p2474
ssVprogramme
p2475
(dp2476
Vtitle
p2477
VFeedback
p2478
sVimage
p2479
(dp2480
Vpid
p2481
Vp01lcl96
p2482
ssVexpected_child_count
p2483
NsVpid
p2484
Vb006slnx
p2485
sVfirst_broadcast_date
p2486
V2007-01-19T13:30:00Z
p2487
sVownership
p2488
(dp2489
Vservice
p2490
(dp2491
Vtype
p2492
Vradio
p2493
sVid
p2494
Vbbc_radio_four
p2495
sVkey
p2496
Vradio4
p2497
sVtitle
p2498
VBBC Radio 4
p2499
sssVposition
p2500
NsVtype
p2501
Vbrand
p2502
sssa(dp2503
Vis_blanked
p2504
I00
sVend
p2505
V2016-02-19T17:00:00Z
p2506
sVpid
p2507
Vp03j8zl9
p2508
sVstart
p2509
V2016-02-19T16:55:00Z
p2510
sVis_repeat
p2511
I00
sVduration
p2512
I300
sVprogramme
p2513
(dp2514
Vis_legacy_media
p2515
I00
sVtitle
p2516
VAnn and Daniel - Breaking the Sound Barrier
p2517
sVmedia
p2518
(dp2519
Vexpires
p2520
NsVavailability
p2521
VAvailable to listen
p2522
sVformat
p2523
Vaudio
p2524
ssVimage
p2525
(dp2526
Vpid
p2527
Vp03jb8wg
p2528
ssVpid
p2529
Vb070hxsl
p2530
sVis_available_mediaset_pc_sd
p2531
I01
sVshort_synopsis
p2532
VA hearing mother and her profoundly deaf son use signing to explore his life and hers.
p2533
sVfirst_broadcast_date
p2534
V2016-02-19T16:55:00Z
p2535
sVownership
p2536
(dp2537
Vservice
p2538
(dp2539
Vtype
p2540
Vradio
p2541
sVid
p2542
Vbbc_radio_four
p2543
sVkey
p2544
Vradio4
p2545
sVtitle
p2546
VBBC Radio 4
p2547
sssVposition
p2548
NsVduration
p2549
I300
sVmedia_type
p2550
Vaudio
p2551
sVactual_start
p2552
V2016-02-19T17:03:58Z
p2553
sVtype
p2554
Vepisode
p2555
sVdisplay_titles
p2556
(dp2557
Vsubtitle
p2558
VAnn and Daniel - Breaking the Sound Barrier
p2559
sVtitle
p2560
VThe Listening Project
p2561
ssVprogramme
p2562
(dp2563
Vtitle
p2564
VThe Listening Project
p2565
sVimage
p2566
(dp2567
Vpid
p2568
Vp02186tt
p2569
ssVexpected_child_count
p2570
NsVpid
p2571
Vb01cqx3b
p2572
sVfirst_broadcast_date
p2573
V2012-03-30T12:52:00+01:00
p2574
sVownership
p2575
(dp2576
Vservice
p2577
(dp2578
Vtype
p2579
Vradio
p2580
sVid
p2581
Vbbc_radio_four
p2582
sVkey
p2583
Vradio4
p2584
sVtitle
p2585
VBBC Radio 4
p2586
sssVposition
p2587
NsVtype
p2588
Vbrand
p2589
sssa(dp2590
Vis_blanked
p2591
I00
sVend
p2592
V2016-02-19T18:00:00Z
p2593
sVpid
p2594
Vp03j8zlb
p2595
sVstart
p2596
V2016-02-19T17:00:00Z
p2597
sVis_repeat
p2598
I00
sVduration
p2599
I3600
sVprogramme
p2600
(dp2601
Vis_legacy_media
p2602
I00
sVtitle
p2603
V19/02/2016
p2604
sVmedia
p2605
(dp2606
Vexpires
p2607
V2016-03-20T18:00:00Z
p2608
sVavailability
p2609
V28 days left to listen
p2610
sVformat
p2611
Vaudio
p2612
ssVimage
p2613
(dp2614
Vpid
p2615
Vp02w4hl3
p2616
ssVavailable_until
p2617
V2016-03-20T18:00:00Z
p2618
sVpid
p2619
Vb070nx1d
p2620
sVis_available_mediaset_pc_sd
p2621
I01
sVshort_synopsis
p2622
VCoverage and analysis of the day's news.
p2623
sVfirst_broadcast_date
p2624
V2016-02-19T17:00:00Z
p2625
sVownership
p2626
(dp2627
Vservice
p2628
(dp2629
Vtype
p2630
Vradio
p2631
sVid
p2632
Vbbc_radio_four
p2633
sVkey
p2634
Vradio4
p2635
sVtitle
p2636
VBBC Radio 4
p2637
sssVposition
p2638
NsVduration
p2639
I3600
sVmedia_type
p2640
Vaudio
p2641
sVactual_start
p2642
V2016-02-19T17:58:44Z
p2643
sVtype
p2644
Vepisode
p2645
sVdisplay_titles
p2646
(dp2647
Vsubtitle
p2648
V19/02/2016
p2649
sVtitle
p2650
VPM
p2651
ssVprogramme
p2652
(dp2653
Vtitle
p2654
VPM
p2655
sVimage
p2656
(dp2657
Vpid
p2658
Vp02w4hl3
p2659
ssVexpected_child_count
p2660
NsVpid
p2661
Vb006qskw
p2662
sVfirst_broadcast_date
p2663
V2007-01-19T17:00:00Z
p2664
sVownership
p2665
(dp2666
Vservice
p2667
(dp2668
Vtype
p2669
Vradio
p2670
sVid
p2671
Vbbc_radio_four
p2672
sVkey
p2673
Vradio4
p2674
sVtitle
p2675
VBBC Radio 4
p2676
sssVposition
p2677
NsVtype
p2678
Vbrand
p2679
sssa(dp2680
Vis_blanked
p2681
I00
sVend
p2682
V2016-02-19T18:30:00Z
p2683
sVpid
p2684
Vp03j8zlc
p2685
sVstart
p2686
V2016-02-19T18:00:00Z
p2687
sVis_repeat
p2688
I00
sVduration
p2689
I1800
sVprogramme
p2690
(dp2691
Vis_legacy_media
p2692
I00
sVtitle
p2693
V19/02/2016 EU leaders locked in talks about UK deal
p2694
sVmedia
p2695
(dp2696
Vexpires
p2697
NsVavailability
p2698
VAvailable to listen
p2699
sVformat
p2700
Vaudio
p2701
ssVimage
p2702
(dp2703
Vpid
p2704
Vp02mbk84
p2705
ssVpid
p2706
Vb0707w0r
p2707
sVis_available_mediaset_pc_sd
p2708
I01
sVshort_synopsis
p2709
VEU leaders remain locked in talks amid signs Mr Cameron is struggling to win concessions
p2710
sVfirst_broadcast_date
p2711
V2016-02-19T18:00:00Z
p2712
sVownership
p2713
(dp2714
Vservice
p2715
(dp2716
Vtype
p2717
Vradio
p2718
sVid
p2719
Vbbc_radio_four
p2720
sVkey
p2721
Vradio4
p2722
sVtitle
p2723
VBBC Radio 4
p2724
sssVposition
p2725
NsVduration
p2726
I1800
sVmedia_type
p2727
Vaudio
p2728
sVactual_start
p2729
V2016-02-19T18:34:35Z
p2730
sVtype
p2731
Vepisode
p2732
sVdisplay_titles
p2733
(dp2734
Vsubtitle
p2735
V19/02/2016 EU leaders locked in talks about UK deal
p2736
sVtitle
p2737
VSix O'Clock News
p2738
ssVprogramme
p2739
(dp2740
Vtitle
p2741
VSix O'Clock News
p2742
sVimage
p2743
(dp2744
Vpid
p2745
Vp02mbk84
p2746
ssVexpected_child_count
p2747
NsVpid
p2748
Vb006qjxt
p2749
sVfirst_broadcast_date
p2750
V2007-01-06T18:00:00Z
p2751
sVownership
p2752
(dp2753
Vservice
p2754
(dp2755
Vtype
p2756
Vradio
p2757
sVid
p2758
Vbbc_radio_four
p2759
sVkey
p2760
Vradio4
p2761
sVtitle
p2762
VBBC Radio 4
p2763
sssVposition
p2764
NsVtype
p2765
Vbrand
p2766
sssa(dp2767
Vis_blanked
p2768
I00
sVend
p2769
V2016-02-19T19:00:00Z
p2770
sVpid
p2771
Vp03j8zld
p2772
sVstart
p2773
V2016-02-19T18:30:00Z
p2774
sVis_repeat
p2775
I00
sVduration
p2776
I1800
sVprogramme
p2777
(dp2778
Vis_legacy_media
p2779
I00
sVtitle
p2780
VEpisode 7
p2781
sVmedia
p2782
(dp2783
Vexpires
p2784
V2016-03-21T12:57:00Z
p2785
sVavailability
p2786
V29 days left to listen
p2787
sVformat
p2788
Vaudio
p2789
ssVimage
p2790
(dp2791
Vpid
p2792
Vp036882l
p2793
ssVavailable_until
p2794
V2016-03-21T12:57:00Z
p2795
sVpid
p2796
Vb070hxsn
p2797
sVis_available_mediaset_pc_sd
p2798
I01
sVshort_synopsis
p2799
VA satirical review of the week's news, chaired by Miles Jupp.
p2800
sVfirst_broadcast_date
p2801
V2016-02-19T18:30:00Z
p2802
sVownership
p2803
(dp2804
Vservice
p2805
(dp2806
Vtype
p2807
Vradio
p2808
sVid
p2809
Vbbc_radio_four
p2810
sVkey
p2811
Vradio4
p2812
sVtitle
p2813
VBBC Radio 4
p2814
sssVposition
p2815
I7
sVduration
p2816
I1800
sVmedia_type
p2817
Vaudio
p2818
sVactual_start
p2819
V2016-02-19T19:11:07Z
p2820
sVtype
p2821
Vepisode
p2822
sVdisplay_titles
p2823
(dp2824
Vsubtitle
p2825
VSeries 89, Episode 7
p2826
sVtitle
p2827
VThe News Quiz
p2828
ssVprogramme
p2829
(dp2830
Vtitle
p2831
VSeries 89
p2832
sVimage
p2833
(dp2834
Vpid
p2835
Vp036882l
p2836
ssVexpected_child_count
p2837
I8
sVpid
p2838
Vb06w1860
p2839
sVfirst_broadcast_date
p2840
V2016-01-08T18:30:00Z
p2841
sVposition
p2842
I89
sVtype
p2843
Vseries
p2844
sVprogramme
p2845
(dp2846
Vtitle
p2847
VThe News Quiz
p2848
sVimage
p2849
(dp2850
Vpid
p2851
Vp036882l
p2852
ssVexpected_child_count
p2853
NsVpid
p2854
Vb006r9yq
p2855
sVfirst_broadcast_date
p2856
V2007-01-19T18:30:00Z
p2857
sVownership
p2858
(dp2859
Vservice
p2860
(dp2861
Vtype
p2862
Vradio
p2863
sVid
p2864
Vbbc_radio_four
p2865
sVkey
p2866
Vradio4
p2867
sVtitle
p2868
VBBC Radio 4
p2869
sssVposition
p2870
NsVtype
p2871
Vbrand
p2872
ssssa(dp2873
Vis_blanked
p2874
I00
sVend
p2875
V2016-02-19T19:15:00Z
p2876
sVpid
p2877
Vp03j8zlh
p2878
sVstart
p2879
V2016-02-19T19:00:00Z
p2880
sVis_repeat
p2881
I00
sVduration
p2882
I900
sVprogramme
p2883
(dp2884
Vis_legacy_media
p2885
I00
sVtitle
p2886
V19/02/2016
p2887
sVmedia
p2888
(dp2889
Vexpires
p2890
V2016-03-20T19:15:00Z
p2891
sVavailability
p2892
V28 days left to listen
p2893
sVformat
p2894
Vaudio
p2895
ssVimage
p2896
(dp2897
Vpid
p2898
Vp01t7xy8
p2899
ssVavailable_until
p2900
V2016-03-20T19:15:00Z
p2901
sVpid
p2902
Vb070hxsq
p2903
sVis_available_mediaset_pc_sd
p2904
I01
sVshort_synopsis
p2905
VHas someone got their eye on Kirsty?
p2906
sVfirst_broadcast_date
p2907
V2016-02-19T19:00:00Z
p2908
sVownership
p2909
(dp2910
Vservice
p2911
(dp2912
Vtype
p2913
Vradio
p2914
sVid
p2915
Vbbc_radio_four
p2916
sVkey
p2917
Vradio4
p2918
sVtitle
p2919
VBBC Radio 4
p2920
sssVposition
p2921
I17906
sVduration
p2922
I840
sVmedia_type
p2923
Vaudio
p2924
sVactual_start
p2925
V2016-02-19T19:10:00Z
p2926
sVtype
p2927
Vepisode
p2928
sVdisplay_titles
p2929
(dp2930
Vsubtitle
p2931
V19/02/2016
p2932
sVtitle
p2933
VThe Archers
p2934
ssVprogramme
p2935
(dp2936
Vtitle
p2937
VThe Archers
p2938
sVimage
p2939
(dp2940
Vpid
p2941
Vp01t7xy8
p2942
ssVexpected_child_count
p2943
NsVpid
p2944
Vb006qpgr
p2945
sVfirst_broadcast_date
p2946
V2007-01-19T14:00:00Z
p2947
sVownership
p2948
(dp2949
Vservice
p2950
(dp2951
Vtype
p2952
Vradio
p2953
sVid
p2954
Vbbc_radio_four
p2955
sVkey
p2956
Vradio4
p2957
sVtitle
p2958
VBBC Radio 4
p2959
sssVposition
p2960
NsVtype
p2961
Vbrand
p2962
sssa(dp2963
Vis_blanked
p2964
I00
sVend
p2965
V2016-02-19T19:45:00Z
p2966
sVpid
p2967
Vp03j8zlm
p2968
sVstart
p2969
V2016-02-19T19:15:00Z
p2970
sVis_repeat
p2971
I00
sVduration
p2972
I1800
sVprogramme
p2973
(dp2974
Vis_legacy_media
p2975
I00
sVtitle
p2976
VHarper Lee remembered, The Night Manager, Simon Armitage, Zelda
p2977
sVmedia
p2978
(dp2979
Vexpires
p2980
NsVavailability
p2981
VAvailable to listen
p2982
sVformat
p2983
Vaudio
p2984
ssVimage
p2985
(dp2986
Vpid
p2987
Vp02x206b
p2988
ssVpid
p2989
Vb070nqx1
p2990
sVis_available_mediaset_pc_sd
p2991
I01
sVshort_synopsis
p2992
VHarper Lee remembered, and John le Carre's The Night Manager adapted for TV.
p2993
sVfirst_broadcast_date
p2994
V2016-02-19T19:15:00Z
p2995
sVownership
p2996
(dp2997
Vservice
p2998
(dp2999
Vtype
p3000
Vradio
p3001
sVid
p3002
Vbbc_radio_four
p3003
sVkey
p3004
Vradio4
p3005
sVtitle
p3006
VBBC Radio 4
p3007
sssVposition
p3008
NsVduration
p3009
I1800
sVmedia_type
p3010
Vaudio
p3011
sVactual_start
p3012
V2016-02-19T19:00:20Z
p3013
sVtype
p3014
Vepisode
p3015
sVdisplay_titles
p3016
(dp3017
Vsubtitle
p3018
VHarper Lee remembered, The Night Manager, Simon Armitage, Zelda
p3019
sVtitle
p3020
VFront Row
p3021
ssVprogramme
p3022
(dp3023
Vtitle
p3024
VFront Row
p3025
sVimage
p3026
(dp3027
Vpid
p3028
Vp02vnvkx
p3029
ssVexpected_child_count
p3030
NsVpid
p3031
Vb006qsq5
p3032
sVfirst_broadcast_date
p3033
V1998-12-28T19:15:00Z
p3034
sVownership
p3035
(dp3036
Vservice
p3037
(dp3038
Vtype
p3039
Vradio
p3040
sVid
p3041
Vbbc_radio_four
p3042
sVkey
p3043
Vradio4
p3044
sVtitle
p3045
VBBC Radio 4
p3046
sssVposition
p3047
NsVtype
p3048
Vbrand
p3049
sssa(dp3050
Vis_blanked
p3051
I00
sVend
p3052
V2016-02-19T20:00:00Z
p3053
sVpid
p3054
Vp03j8zlq
p3055
sVstart
p3056
V2016-02-19T19:45:00Z
p3057
sVis_repeat
p3058
I01
sVduration
p3059
I900
sVprogramme
p3060
(dp3061
Vis_legacy_media
p3062
I00
sVtitle
p3063
VEpisode 10
p3064
sVmedia
p3065
(dp3066
Vexpires
p3067
V2016-03-20T20:00:00Z
p3068
sVavailability
p3069
V29 days left to listen
p3070
sVformat
p3071
Vaudio
p3072
ssVimage
p3073
(dp3074
Vpid
p3075
Vp03h6j04
p3076
ssVavailable_until
p3077
V2016-03-20T20:00:00Z
p3078
sVpid
p3079
Vb070hscp
p3080
sVis_available_mediaset_pc_sd
p3081
I01
sVshort_synopsis
p3082
VLuke's dark night of the soul is over.
p3083
sVfirst_broadcast_date
p3084
V2016-02-19T10:45:00Z
p3085
sVownership
p3086
(dp3087
Vservice
p3088
(dp3089
Vtype
p3090
Vradio
p3091
sVid
p3092
Vbbc_radio_four
p3093
sVkey
p3094
Vradio4
p3095
sVtitle
p3096
VBBC Radio 4
p3097
sssVposition
p3098
I10
sVduration
p3099
I900
sVmedia_type
p3100
Vaudio
p3101
sVactual_start
p3102
V2016-02-19T11:04:24Z
p3103
sVtype
p3104
Vepisode
p3105
sVdisplay_titles
p3106
(dp3107
Vsubtitle
p3108
VHalfway Here, Episode 10
p3109
sVtitle
p3110
V15 Minute Drama
p3111
ssVprogramme
p3112
(dp3113
Vtitle
p3114
VHalfway Here
p3115
sVimage
p3116
(dp3117
Vpid
p3118
Vp03h6j04
p3119
ssVexpected_child_count
p3120
I10
sVpid
p3121
Vb070p6zz
p3122
sVfirst_broadcast_date
p3123
V2016-02-08T10:45:00Z
p3124
sVposition
p3125
NsVtype
p3126
Vseries
p3127
sVprogramme
p3128
(dp3129
Vtitle
p3130
V15 Minute Drama
p3131
sVimage
p3132
(dp3133
Vpid
p3134
Vp01ynknj
p3135
ssVexpected_child_count
p3136
NsVpid
p3137
Vb006qy2s
p3138
sVfirst_broadcast_date
p3139
V2007-01-19T19:45:00Z
p3140
sVownership
p3141
(dp3142
Vservice
p3143
(dp3144
Vtype
p3145
Vradio
p3146
sVid
p3147
Vbbc_radio_four
p3148
sVkey
p3149
Vradio4
p3150
sVtitle
p3151
VBBC Radio 4
p3152
sssVposition
p3153
NsVtype
p3154
Vbrand
p3155
ssssa(dp3156
Vis_blanked
p3157
I00
sVend
p3158
V2016-02-19T20:50:00Z
p3159
sVpid
p3160
Vp03j8zlt
p3161
sVstart
p3162
V2016-02-19T20:00:00Z
p3163
sVis_repeat
p3164
I00
sVduration
p3165
I3000
sVprogramme
p3166
(dp3167
Vis_legacy_media
p3168
I00
sVtitle
p3169
VDamien Green MP, Dan Hannan MEP, John Mills, Emily Thornberry MP
p3170
sVmedia
p3171
(dp3172
Vexpires
p3173
NsVavailability
p3174
VAvailable to listen
p3175
sVformat
p3176
Vaudio
p3177
ssVimage
p3178
(dp3179
Vpid
p3180
Vp03k54w6
p3181
ssVpid
p3182
Vb070hxss
p3183
sVis_available_mediaset_pc_sd
p3184
I01
sVshort_synopsis
p3185
VJonathan Dimbleby presents political debate from Wolfson College, Cambridge University.
p3186
sVfirst_broadcast_date
p3187
V2016-02-19T20:00:00Z
p3188
sVownership
p3189
(dp3190
Vservice
p3191
(dp3192
Vtype
p3193
Vradio
p3194
sVid
p3195
Vbbc_radio_four
p3196
sVkey
p3197
Vradio4
p3198
sVtitle
p3199
VBBC Radio 4
p3200
sssVposition
p3201
NsVduration
p3202
I2880
sVmedia_type
p3203
Vaudio
p3204
sVactual_start
p3205
V2016-02-19T20:54:35Z
p3206
sVtype
p3207
Vepisode
p3208
sVdisplay_titles
p3209
(dp3210
Vsubtitle
p3211
VDamien Green MP, Dan Hannan MEP, John Mills, Emily Thornberry MP
p3212
sVtitle
p3213
VAny Questions?
p3214
ssVprogramme
p3215
(dp3216
Vtitle
p3217
VAny Questions?
p3218
sVimage
p3219
(dp3220
Vpid
p3221
Vp01lc1n2
p3222
ssVexpected_child_count
p3223
NsVpid
p3224
Vb006qgvj
p3225
sVfirst_broadcast_date
p3226
V2007-01-06T13:10:00Z
p3227
sVownership
p3228
(dp3229
Vservice
p3230
(dp3231
Vtype
p3232
Vradio
p3233
sVid
p3234
Vbbc_radio_four
p3235
sVkey
p3236
Vradio4
p3237
sVtitle
p3238
VBBC Radio 4
p3239
sssVposition
p3240
NsVtype
p3241
Vbrand
p3242
sssa(dp3243
Vis_blanked
p3244
I00
sVend
p3245
V2016-02-19T21:00:00Z
p3246
sVpid
p3247
Vp03j8zlv
p3248
sVstart
p3249
V2016-02-19T20:50:00Z
p3250
sVis_repeat
p3251
I00
sVduration
p3252
I600
sVprogramme
p3253
(dp3254
Vis_legacy_media
p3255
I00
sVtitle
p3256
VVanilla Happiness
p3257
sVmedia
p3258
(dp3259
Vexpires
p3260
NsVavailability
p3261
VAvailable to listen
p3262
sVformat
p3263
Vaudio
p3264
ssVimage
p3265
(dp3266
Vpid
p3267
Vp01x7zj7
p3268
ssVpid
p3269
Vb070hxsv
p3270
sVis_available_mediaset_pc_sd
p3271
I01
sVshort_synopsis
p3272
VAdam Gopnik says the secret of happiness lies in unexpected pleasures.
p3273
sVfirst_broadcast_date
p3274
V2016-02-19T20:50:00Z
p3275
sVownership
p3276
(dp3277
Vservice
p3278
(dp3279
Vtype
p3280
Vradio
p3281
sVid
p3282
Vbbc_radio_four
p3283
sVkey
p3284
Vradio4
p3285
sVtitle
p3286
VBBC Radio 4
p3287
sssVposition
p3288
NsVduration
p3289
I600
sVmedia_type
p3290
Vaudio
p3291
sVactual_start
p3292
V2016-02-19T21:00:00Z
p3293
sVtype
p3294
Vepisode
p3295
sVdisplay_titles
p3296
(dp3297
Vsubtitle
p3298
VVanilla Happiness
p3299
sVtitle
p3300
VA Point of View
p3301
ssVprogramme
p3302
(dp3303
Vtitle
p3304
VA Point of View
p3305
sVimage
p3306
(dp3307
Vpid
p3308
Vp01lylg8
p3309
ssVexpected_child_count
p3310
NsVpid
p3311
Vb006qng8
p3312
sVfirst_broadcast_date
p3313
V2007-01-19T20:50:00Z
p3314
sVownership
p3315
(dp3316
Vservice
p3317
(dp3318
Vtype
p3319
Vradio
p3320
sVid
p3321
Vbbc_radio_four
p3322
sVkey
p3323
Vradio4
p3324
sVtitle
p3325
VBBC Radio 4
p3326
sssVposition
p3327
NsVtype
p3328
Vbrand
p3329
sssa(dp3330
Vis_blanked
p3331
I00
sVend
p3332
V2016-02-19T21:58:00Z
p3333
sVpid
p3334
Vp03j8zlw
p3335
sVstart
p3336
V2016-02-19T21:00:00Z
p3337
sVis_repeat
p3338
I01
sVduration
p3339
I3480
sVprogramme
p3340
(dp3341
Vis_legacy_media
p3342
I00
sVtitle
p3343
VThe Choke
p3344
sVmedia
p3345
(dp3346
Vexpires
p3347
NsVavailability
p3348
VAvailable to listen
p3349
sVformat
p3350
Vaudio
p3351
ssVimage
p3352
(dp3353
Vpid
p3354
Vp02r51ss
p3355
ssVpid
p3356
Vb05v6d35
p3357
sVis_available_mediaset_pc_sd
p3358
I01
sVshort_synopsis
p3359
VBrains behaving badly: how talented people are fooled into failing. With Matthew Syed.
p3360
sVfirst_broadcast_date
p3361
V2015-05-16T20:00:00+01:00
p3362
sVownership
p3363
(dp3364
Vservice
p3365
(dp3366
Vtype
p3367
Vradio
p3368
sVid
p3369
Vbbc_radio_four
p3370
sVkey
p3371
Vradio4
p3372
sVtitle
p3373
VBBC Radio 4
p3374
sssVposition
p3375
NsVduration
p3376
I3480
sVmedia_type
p3377
Vaudio
p3378
sVactual_start
p3379
V2015-05-16T21:03:41+01:00
p3380
sVtype
p3381
Vepisode
p3382
sVdisplay_titles
p3383
(dp3384
Vsubtitle
p3385
VThe Choke
p3386
sVtitle
p3387
VArchive on 4
p3388
ssVprogramme
p3389
(dp3390
Vtitle
p3391
VArchive on 4
p3392
sVimage
p3393
(dp3394
Vpid
p3395
Vp02r51rp
p3396
ssVexpected_child_count
p3397
NsVpid
p3398
Vb00hg8dq
p3399
sVfirst_broadcast_date
p3400
V2007-05-26T20:00:00+01:00
p3401
sVownership
p3402
(dp3403
Vservice
p3404
(dp3405
Vtype
p3406
Vradio
p3407
sVid
p3408
Vbbc_radio_four
p3409
sVkey
p3410
Vradio4
p3411
sVtitle
p3412
VBBC Radio 4
p3413
sssVposition
p3414
NsVtype
p3415
Vbrand
p3416
sssa(dp3417
Vis_blanked
p3418
I00
sVend
p3419
V2016-02-19T22:00:00Z
p3420
sVpid
p3421
Vp03j8zlx
p3422
sVstart
p3423
V2016-02-19T21:58:00Z
p3424
sVis_repeat
p3425
I00
sVduration
p3426
I120
sVprogramme
p3427
(dp3428
Vis_legacy_media
p3429
I00
sVtitle
p3430
V19/02/2016
p3431
sVimage
p3432
(dp3433
Vpid
p3434
Vp01lc36f
p3435
ssVpid
p3436
Vb0707w14
p3437
sVis_available_mediaset_pc_sd
p3438
I00
sVshort_synopsis
p3439
VWeather information.
p3440
sVfirst_broadcast_date
p3441
V2016-02-19T21:58:00Z
p3442
sVownership
p3443
(dp3444
Vservice
p3445
(dp3446
Vtype
p3447
Vradio
p3448
sVid
p3449
Vbbc_radio_four
p3450
sVkey
p3451
Vradio4
p3452
sVtitle
p3453
VBBC Radio 4
p3454
sssVposition
p3455
NsVduration
p3456
I120
sVmedia_type
p3457
Vaudio
p3458
sVtype
p3459
Vepisode
p3460
sVdisplay_titles
p3461
(dp3462
Vsubtitle
p3463
V19/02/2016
p3464
sVtitle
p3465
VWeather
p3466
ssVprogramme
p3467
(dp3468
Vtitle
p3469
VWeather
p3470
sVimage
p3471
(dp3472
Vpid
p3473
Vp01lc36f
p3474
ssVexpected_child_count
p3475
NsVpid
p3476
Vb007rn05
p3477
sVfirst_broadcast_date
p3478
V2006-04-05T12:57:00+01:00
p3479
sVownership
p3480
(dp3481
Vservice
p3482
(dp3483
Vtype
p3484
Vradio
p3485
sVid
p3486
Vbbc_radio_four
p3487
sVkey
p3488
Vradio4
p3489
sVtitle
p3490
VBBC Radio 4
p3491
sssVposition
p3492
NsVtype
p3493
Vbrand
p3494
sssa(dp3495
Vis_blanked
p3496
I00
sVend
p3497
V2016-02-19T22:45:00Z
p3498
sVpid
p3499
Vp03j8zly
p3500
sVstart
p3501
V2016-02-19T22:00:00Z
p3502
sVis_repeat
p3503
I00
sVduration
p3504
I2700
sVprogramme
p3505
(dp3506
Vis_legacy_media
p3507
I00
sVtitle
p3508
VUK reaches EU deal in Brussels
p3509
sVmedia
p3510
(dp3511
Vexpires
p3512
NsVavailability
p3513
VAvailable to listen
p3514
sVformat
p3515
Vaudio
p3516
ssVimage
p3517
(dp3518
Vpid
p3519
Vp03k3rvd
p3520
ssVpid
p3521
Vb070nqx7
p3522
sVis_available_mediaset_pc_sd
p3523
I01
sVshort_synopsis
p3524
VThe Cabinet may meet on Saturday, and Michael Gove is expected to join the No campaign.
p3525
sVfirst_broadcast_date
p3526
V2016-02-19T22:00:00Z
p3527
sVownership
p3528
(dp3529
Vservice
p3530
(dp3531
Vtype
p3532
Vradio
p3533
sVid
p3534
Vbbc_radio_four
p3535
sVkey
p3536
Vradio4
p3537
sVtitle
p3538
VBBC Radio 4
p3539
sssVposition
p3540
NsVduration
p3541
I2700
sVmedia_type
p3542
Vaudio
p3543
sVactual_start
p3544
V2016-02-19T22:48:55Z
p3545
sVtype
p3546
Vepisode
p3547
sVdisplay_titles
p3548
(dp3549
Vsubtitle
p3550
VUK reaches EU deal in Brussels
p3551
sVtitle
p3552
VThe World Tonight
p3553
ssVprogramme
p3554
(dp3555
Vtitle
p3556
VThe World Tonight
p3557
sVimage
p3558
(dp3559
Vpid
p3560
Vp032tt6g
p3561
ssVexpected_child_count
p3562
NsVpid
p3563
Vb006qtl3
p3564
sVfirst_broadcast_date
p3565
V2006-04-05T22:00:00+01:00
p3566
sVownership
p3567
(dp3568
Vservice
p3569
(dp3570
Vtype
p3571
Vradio
p3572
sVid
p3573
Vbbc_radio_four
p3574
sVkey
p3575
Vradio4
p3576
sVtitle
p3577
VBBC Radio 4
p3578
sssVposition
p3579
NsVtype
p3580
Vbrand
p3581
sssa(dp3582
Vis_blanked
p3583
I00
sVend
p3584
V2016-02-19T23:00:00Z
p3585
sVpid
p3586
Vp03j8zm0
p3587
sVstart
p3588
V2016-02-19T22:45:00Z
p3589
sVis_repeat
p3590
I00
sVduration
p3591
I900
sVprogramme
p3592
(dp3593
Vis_legacy_media
p3594
I00
sVtitle
p3595
VEpisode 5
p3596
sVmedia
p3597
(dp3598
Vexpires
p3599
V2016-03-20T23:00:00Z
p3600
sVavailability
p3601
V29 days left to listen
p3602
sVformat
p3603
Vaudio
p3604
ssVimage
p3605
(dp3606
Vpid
p3607
Vp03j0c1x
p3608
ssVavailable_until
p3609
V2016-03-20T23:00:00Z
p3610
sVpid
p3611
Vb070hxsx
p3612
sVis_available_mediaset_pc_sd
p3613
I01
sVshort_synopsis
p3614
VAs the wedding draws closer, Jonathan's sense of doom increases.
p3615
sVfirst_broadcast_date
p3616
V2016-02-19T22:45:00Z
p3617
sVownership
p3618
(dp3619
Vservice
p3620
(dp3621
Vtype
p3622
Vradio
p3623
sVid
p3624
Vbbc_radio_four
p3625
sVkey
p3626
Vradio4
p3627
sVtitle
p3628
VBBC Radio 4
p3629
sssVposition
p3630
I5
sVduration
p3631
I900
sVmedia_type
p3632
Vaudio
p3633
sVactual_start
p3634
V2016-02-19T23:04:29Z
p3635
sVtype
p3636
Vepisode
p3637
sVdisplay_titles
p3638
(dp3639
Vsubtitle
p3640
VJonathan Unleashed, Episode 5
p3641
sVtitle
p3642
VBook at Bedtime
p3643
ssVprogramme
p3644
(dp3645
Vtitle
p3646
VJonathan Unleashed
p3647
sVimage
p3648
(dp3649
Vpid
p3650
Vp03j0c1x
p3651
ssVexpected_child_count
p3652
I10
sVpid
p3653
Vb071c4ys
p3654
sVfirst_broadcast_date
p3655
V2016-02-15T22:45:00Z
p3656
sVposition
p3657
NsVtype
p3658
Vseries
p3659
sVprogramme
p3660
(dp3661
Vtitle
p3662
VBook at Bedtime
p3663
sVimage
p3664
(dp3665
Vpid
p3666
Vp01lcmpc
p3667
ssVexpected_child_count
p3668
NsVpid
p3669
Vb006qtlx
p3670
sVfirst_broadcast_date
p3671
V2005-01-31T22:45:00Z
p3672
sVownership
p3673
(dp3674
Vservice
p3675
(dp3676
Vtype
p3677
Vradio
p3678
sVid
p3679
Vbbc_radio_four
p3680
sVkey
p3681
Vradio4
p3682
sVtitle
p3683
VBBC Radio 4
p3684
sssVposition
p3685
NsVtype
p3686
Vbrand
p3687
ssssa(dp3688
Vis_blanked
p3689
I00
sVend
p3690
V2016-02-19T23:27:00Z
p3691
sVpid
p3692
Vp03j8zm6
p3693
sVstart
p3694
V2016-02-19T23:00:00Z
p3695
sVis_repeat
p3696
I01
sVduration
p3697
I1620
sVprogramme
p3698
(dp3699
Vis_legacy_media
p3700
I00
sVtitle
p3701
VSamantha Bond and Jason Cowley
p3702
sVmedia
p3703
(dp3704
Vexpires
p3705
NsVavailability
p3706
VAvailable to listen
p3707
sVformat
p3708
Vaudio
p3709
ssVimage
p3710
(dp3711
Vpid
p3712
Vp03j3p1p
p3713
ssVpid
p3714
Vb070dnqt
p3715
sVis_available_mediaset_pc_sd
p3716
I01
sVshort_synopsis
p3717
VSamantha Bond and Jason Cowley join Harriett Gilbert to discuss favourite books.
p3718
sVfirst_broadcast_date
p3719
V2016-02-16T16:30:00Z
p3720
sVownership
p3721
(dp3722
Vservice
p3723
(dp3724
Vtype
p3725
Vradio
p3726
sVid
p3727
Vbbc_radio_four
p3728
sVkey
p3729
Vradio4
p3730
sVtitle
p3731
VBBC Radio 4
p3732
sssVposition
p3733
NsVduration
p3734
I1800
sVmedia_type
p3735
Vaudio
p3736
sVactual_start
p3737
V2016-02-16T17:05:57Z
p3738
sVtype
p3739
Vepisode
p3740
sVdisplay_titles
p3741
(dp3742
Vsubtitle
p3743
VSamantha Bond and Jason Cowley
p3744
sVtitle
p3745
VA Good Read
p3746
ssVprogramme
p3747
(dp3748
Vtitle
p3749
VA Good Read
p3750
sVimage
p3751
(dp3752
Vpid
p3753
Vp01lc1s7
p3754
ssVexpected_child_count
p3755
NsVpid
p3756
Vb006v8jn
p3757
sVfirst_broadcast_date
p3758
V1998-08-25T16:30:00+01:00
p3759
sVownership
p3760
(dp3761
Vservice
p3762
(dp3763
Vtype
p3764
Vradio
p3765
sVid
p3766
Vbbc_radio_four
p3767
sVkey
p3768
Vradio4
p3769
sVtitle
p3770
VBBC Radio 4
p3771
sssVposition
p3772
NsVtype
p3773
Vbrand
p3774
sssa(dp3775
Vis_blanked
p3776
I00
sVend
p3777
V2016-02-19T23:55:00Z
p3778
sVpid
p3779
Vp03j8zm8
p3780
sVstart
p3781
V2016-02-19T23:27:00Z
p3782
sVis_repeat
p3783
I01
sVduration
p3784
I1680
sVprogramme
p3785
(dp3786
Vis_legacy_media
p3787
I00
sVtitle
p3788
VJesus' Blood and Fluffy Clouds
p3789
sVmedia
p3790
(dp3791
Vexpires
p3792
NsVavailability
p3793
VAvailable to listen
p3794
sVformat
p3795
Vaudio
p3796
ssVimage
p3797
(dp3798
Vpid
p3799
Vp02srq67
p3800
ssVpid
p3801
Vb05xxhw6
p3802
sVis_available_mediaset_pc_sd
p3803
I01
sVshort_synopsis
p3804
VThe story of the musical aesthetic and the ubiquitous technique of minimalism.
p3805
sVfirst_broadcast_date
p3806
V2015-06-16T11:30:00+01:00
p3807
sVownership
p3808
(dp3809
Vservice
p3810
(dp3811
Vtype
p3812
Vradio
p3813
sVid
p3814
Vbbc_radio_four
p3815
sVkey
p3816
Vradio4
p3817
sVtitle
p3818
VBBC Radio 4
p3819
sssVposition
p3820
I2
sVduration
p3821
I1800
sVmedia_type
p3822
Vaudio
p3823
sVactual_start
p3824
V2015-06-16T12:10:57+01:00
p3825
sVtype
p3826
Vepisode
p3827
sVdisplay_titles
p3828
(dp3829
Vsubtitle
p3830
VJesus' Blood and Fluffy Clouds
p3831
sVtitle
p3832
VMinimal Impact
p3833
ssVprogramme
p3834
(dp3835
Vtitle
p3836
VMinimal Impact
p3837
sVimage
p3838
(dp3839
Vpid
p3840
Vp02srq67
p3841
ssVexpected_child_count
p3842
I2
sVpid
p3843
Vb05xdc9h
p3844
sVfirst_broadcast_date
p3845
V2015-06-09T11:30:00+01:00
p3846
sVownership
p3847
(dp3848
Vservice
p3849
(dp3850
Vtype
p3851
Vradio
p3852
sVid
p3853
Vbbc_radio_four
p3854
sVkey
p3855
Vradio4
p3856
sVtitle
p3857
VBBC Radio 4
p3858
sssVposition
p3859
NsVtype
p3860
Vseries
p3861
sssa(dp3862
Vis_blanked
p3863
I00
sVend
p3864
V2016-02-20T00:00:00Z
p3865
sVpid
p3866
Vp03j8zmb
p3867
sVstart
p3868
V2016-02-19T23:55:00Z
p3869
sVis_repeat
p3870
I00
sVduration
p3871
I300
sVprogramme
p3872
(dp3873
Vis_legacy_media
p3874
I00
sVtitle
p3875
VJane and Hannah - Deaf or Hearing
p3876
sVmedia
p3877
(dp3878
Vexpires
p3879
NsVavailability
p3880
VAvailable to listen
p3881
sVformat
p3882
Vaudio
p3883
ssVimage
p3884
(dp3885
Vpid
p3886
Vp03jb8w5
p3887
ssVpid
p3888
Vb070hxwl
p3889
sVis_available_mediaset_pc_sd
p3890
I01
sVshort_synopsis
p3891
VA daughter who was born deaf anticipates the birth her first child with her hearing mother
p3892
sVfirst_broadcast_date
p3893
V2016-02-19T23:55:00Z
p3894
sVownership
p3895
(dp3896
Vservice
p3897
(dp3898
Vtype
p3899
Vradio
p3900
sVid
p3901
Vbbc_radio_four
p3902
sVkey
p3903
Vradio4
p3904
sVtitle
p3905
VBBC Radio 4
p3906
sssVposition
p3907
NsVduration
p3908
I300
sVmedia_type
p3909
Vaudio
p3910
sVactual_start
p3911
V2016-02-20T00:04:07Z
p3912
sVtype
p3913
Vepisode
p3914
sVdisplay_titles
p3915
(dp3916
Vsubtitle
p3917
VJane and Hannah - Deaf or Hearing
p3918
sVtitle
p3919
VThe Listening Project
p3920
ssVprogramme
p3921
(dp3922
Vtitle
p3923
VThe Listening Project
p3924
sVimage
p3925
(dp3926
Vpid
p3927
Vp02186tt
p3928
ssVexpected_child_count
p3929
NsVpid
p3930
Vb01cqx3b
p3931
sVfirst_broadcast_date
p3932
V2012-03-30T12:52:00+01:00
p3933
sVownership
p3934
(dp3935
Vservice
p3936
(dp3937
Vtype
p3938
Vradio
p3939
sVid
p3940
Vbbc_radio_four
p3941
sVkey
p3942
Vradio4
p3943
sVtitle
p3944
VBBC Radio 4
p3945
sssVposition
p3946
NsVtype
p3947
Vbrand
p3948
sssa(dp3949
Vis_blanked
p3950
I00
sVend
p3951
V2016-02-20T00:30:00Z
p3952
sVpid
p3953
Vp03j8zmd
p3954
sVstart
p3955
V2016-02-20T00:00:00Z
p3956
sVis_repeat
p3957
I00
sVduration
p3958
I1800
sVprogramme
p3959
(dp3960
Vis_legacy_media
p3961
I00
sVtitle
p3962
V20/02/2016
p3963
sVmedia
p3964
(dp3965
Vexpires
p3966
V2016-03-21T00:30:00Z
p3967
sVavailability
p3968
V29 days left to listen
p3969
sVformat
p3970
Vaudio
p3971
ssVimage
p3972
(dp3973
Vpid
p3974
Vp01lcbf6
p3975
ssVavailable_until
p3976
V2016-03-21T00:30:00Z
p3977
sVpid
p3978
Vb0707w9t
p3979
sVis_available_mediaset_pc_sd
p3980
I01
sVshort_synopsis
p3981
VThe latest national and international news from BBC Radio 4.
p3982
sVfirst_broadcast_date
p3983
V2016-02-20T00:00:00Z
p3984
sVownership
p3985
(dp3986
Vservice
p3987
(dp3988
Vtype
p3989
Vradio
p3990
sVid
p3991
Vbbc_radio_four
p3992
sVkey
p3993
Vradio4
p3994
sVtitle
p3995
VBBC Radio 4
p3996
sssVposition
p3997
NsVduration
p3998
I1800
sVmedia_type
p3999
Vaudio
p4000
sVactual_start
p4001
V2016-02-20T00:34:32Z
p4002
sVtype
p4003
Vepisode
p4004
sVdisplay_titles
p4005
(dp4006
Vsubtitle
p4007
V20/02/2016
p4008
sVtitle
p4009
VMidnight News
p4010
ssVprogramme
p4011
(dp4012
Vtitle
p4013
VMidnight News
p4014
sVimage
p4015
(dp4016
Vpid
p4017
Vp01lcbf6
p4018
ssVexpected_child_count
p4019
NsVpid
p4020
Vb00cs19l
p4021
sVfirst_broadcast_date
p4022
V2007-02-03T00:00:00Z
p4023
sVownership
p4024
(dp4025
Vservice
p4026
(dp4027
Vtype
p4028
Vradio
p4029
sVid
p4030
Vbbc_radio_four
p4031
sVkey
p4032
Vradio4
p4033
sVtitle
p4034
VBBC Radio 4
p4035
sssVposition
p4036
NsVtype
p4037
Vbrand
p4038
sssa(dp4039
Vis_blanked
p4040
I00
sVend
p4041
V2016-02-20T00:48:00Z
p4042
sVpid
p4043
Vp03j8zmf
p4044
sVstart
p4045
V2016-02-20T00:30:00Z
p4046
sVis_repeat
p4047
I01
sVduration
p4048
I1080
sVprogramme
p4049
(dp4050
Vis_legacy_media
p4051
I00
sVtitle
p4052
VEpisode 5
p4053
sVmedia
p4054
(dp4055
Vexpires
p4056
V2016-03-21T00:48:00Z
p4057
sVavailability
p4058
V29 days left to listen
p4059
sVformat
p4060
Vaudio
p4061
ssVimage
p4062
(dp4063
Vpid
p4064
Vp03hxj5z
p4065
ssVavailable_until
p4066
V2016-03-21T00:48:00Z
p4067
sVpid
p4068
Vb070hsck
p4069
sVis_available_mediaset_pc_sd
p4070
I01
sVshort_synopsis
p4071
VIt is 1775, and Franklin is no longer of any political use in London.
p4072
sVfirst_broadcast_date
p4073
V2016-02-19T09:45:00Z
p4074
sVownership
p4075
(dp4076
Vservice
p4077
(dp4078
Vtype
p4079
Vradio
p4080
sVid
p4081
Vbbc_radio_four
p4082
sVkey
p4083
Vradio4
p4084
sVtitle
p4085
VBBC Radio 4
p4086
sssVposition
p4087
I5
sVduration
p4088
I900
sVmedia_type
p4089
Vaudio
p4090
sVactual_start
p4091
V2016-02-19T10:08:32Z
p4092
sVtype
p4093
Vepisode
p4094
sVdisplay_titles
p4095
(dp4096
Vsubtitle
p4097
VBenjamin Franklin in London, Episode 5
p4098
sVtitle
p4099
VBook of the Week
p4100
ssVprogramme
p4101
(dp4102
Vtitle
p4103
VBenjamin Franklin in London
p4104
sVimage
p4105
(dp4106
Vpid
p4107
Vp03hxj5z
p4108
ssVexpected_child_count
p4109
I5
sVpid
p4110
Vb071c3cx
p4111
sVfirst_broadcast_date
p4112
V2016-02-15T09:45:00Z
p4113
sVposition
p4114
NsVtype
p4115
Vseries
p4116
sVprogramme
p4117
(dp4118
Vtitle
p4119
VBook of the Week
p4120
sVimage
p4121
(dp4122
Vpid
p4123
Vp01lc1rh
p4124
ssVexpected_child_count
p4125
NsVpid
p4126
Vb006qftk
p4127
sVfirst_broadcast_date
p4128
V2007-01-01T09:45:00Z
p4129
sVownership
p4130
(dp4131
Vservice
p4132
(dp4133
Vtype
p4134
Vradio
p4135
sVid
p4136
Vbbc_radio_four
p4137
sVkey
p4138
Vradio4
p4139
sVtitle
p4140
VBBC Radio 4
p4141
sssVposition
p4142
NsVtype
p4143
Vbrand
p4144
ssssa(dp4145
Vis_blanked
p4146
I00
sVend
p4147
V2016-02-20T01:00:00Z
p4148
sVpid
p4149
Vp03j8zmh
p4150
sVstart
p4151
V2016-02-20T00:48:00Z
p4152
sVis_repeat
p4153
I00
sVduration
p4154
I720
sVprogramme
p4155
(dp4156
Vis_legacy_media
p4157
I00
sVtitle
p4158
V20/02/2016
p4159
sVmedia
p4160
(dp4161
Vexpires
p4162
V2016-03-21T01:00:00Z
p4163
sVavailability
p4164
V29 days left to listen
p4165
sVformat
p4166
Vaudio
p4167
ssVimage
p4168
(dp4169
Vpid
p4170
Vp0368m65
p4171
ssVavailable_until
p4172
V2016-03-21T01:00:00Z
p4173
sVpid
p4174
Vb0707w9w
p4175
sVis_available_mediaset_pc_sd
p4176
I01
sVshort_synopsis
p4177
VThe latest shipping forecast.
p4178
sVfirst_broadcast_date
p4179
V2016-02-20T00:48:00Z
p4180
sVownership
p4181
(dp4182
Vservice
p4183
(dp4184
Vtype
p4185
Vradio
p4186
sVid
p4187
Vbbc_radio_four
p4188
sVkey
p4189
Vradio4
p4190
sVtitle
p4191
VBBC Radio 4
p4192
sssVposition
p4193
NsVduration
p4194
I660
sVmedia_type
p4195
Vaudio
p4196
sVactual_start
p4197
V2016-02-20T01:03:36Z
p4198
sVtype
p4199
Vepisode
p4200
sVdisplay_titles
p4201
(dp4202
Vsubtitle
p4203
V20/02/2016
p4204
sVtitle
p4205
VShipping Forecast
p4206
ssVprogramme
p4207
(dp4208
Vtitle
p4209
VShipping Forecast
p4210
sVimage
p4211
(dp4212
Vpid
p4213
Vp0368m65
p4214
ssVexpected_child_count
p4215
NsVpid
p4216
Vb006qfvv
p4217
sVfirst_broadcast_date
p4218
V2006-04-05T00:48:00+01:00
p4219
sVownership
p4220
(dp4221
Vservice
p4222
(dp4223
Vtype
p4224
Vradio
p4225
sVid
p4226
Vbbc_radio_four
p4227
sVkey
p4228
Vradio4
p4229
sVtitle
p4230
VBBC Radio 4
p4231
sssVposition
p4232
NsVtype
p4233
Vbrand
p4234
sssa(dp4235
Vis_blanked
p4236
I00
sVend
p4237
V2016-02-20T05:20:00Z
p4238
sVpid
p4239
Vp03j8zmk
p4240
sVstart
p4241
V2016-02-20T01:00:00Z
p4242
sVis_repeat
p4243
I00
sVduration
p4244
I15600
sVprogramme
p4245
(dp4246
Vis_legacy_media
p4247
I00
sVtitle
p4248
V20/02/2016
p4249
sVimage
p4250
(dp4251
Vpid
p4252
Vp01lchw0
p4253
ssVpid
p4254
Vb0707w9y
p4255
sVis_available_mediaset_pc_sd
p4256
I00
sVshort_synopsis
p4257
VBBC Radio 4 joins the BBC World Service.
p4258
sVfirst_broadcast_date
p4259
V2016-02-20T01:00:00Z
p4260
sVownership
p4261
(dp4262
Vservice
p4263
(dp4264
Vtype
p4265
Vradio
p4266
sVid
p4267
Vbbc_world_service
p4268
sVkey
p4269
Vworldserviceradio
p4270
sVtitle
p4271
VBBC World Service
p4272
sssVposition
p4273
NsVduration
p4274
I15600
sVmedia_type
p4275
Vaudio
p4276
sVtype
p4277
Vepisode
p4278
sVdisplay_titles
p4279
(dp4280
Vsubtitle
p4281
V20/02/2016
p4282
sVtitle
p4283
VSelection of BBC World Service Programmes
p4284
ssVprogramme
p4285
(dp4286
Vtitle
p4287
VSelection of BBC World Service Programmes
p4288
sVimage
p4289
(dp4290
Vpid
p4291
Vp01lchw0
p4292
ssVexpected_child_count
p4293
NsVpid
p4294
Vb006s54y
p4295
sVfirst_broadcast_date
p4296
V2007-01-06T01:00:00Z
p4297
sVownership
p4298
(dp4299
Vservice
p4300
(dp4301
Vtype
p4302
Vradio
p4303
sVid
p4304
Vbbc_world_service
p4305
sVkey
p4306
Vworldserviceradio
p4307
sVtitle
p4308
VBBC World Service
p4309
sssVposition
p4310
NsVtype
p4311
Vbrand
p4312
sssa(dp4313
Vis_blanked
p4314
I00
sVend
p4315
V2016-02-20T05:30:00Z
p4316
sVpid
p4317
Vp03j8zml
p4318
sVstart
p4319
V2016-02-20T05:20:00Z
p4320
sVis_repeat
p4321
I00
sVduration
p4322
I600
sVprogramme
p4323
(dp4324
Vis_legacy_media
p4325
I00
sVtitle
p4326
V20/02/2016
p4327
sVmedia
p4328
(dp4329
Vexpires
p4330
V2016-03-21T05:30:00Z
p4331
sVavailability
p4332
V29 days left to listen
p4333
sVformat
p4334
Vaudio
p4335
ssVimage
p4336
(dp4337
Vpid
p4338
Vp0368m65
p4339
ssVavailable_until
p4340
V2016-03-21T05:30:00Z
p4341
sVpid
p4342
Vb0707wb0
p4343
sVis_available_mediaset_pc_sd
p4344
I01
sVshort_synopsis
p4345
VThe latest shipping forecast.
p4346
sVfirst_broadcast_date
p4347
V2016-02-20T05:20:00Z
p4348
sVownership
p4349
(dp4350
Vservice
p4351
(dp4352
Vtype
p4353
Vradio
p4354
sVid
p4355
Vbbc_radio_four
p4356
sVkey
p4357
Vradio4
p4358
sVtitle
p4359
VBBC Radio 4
p4360
sssVposition
p4361
NsVduration
p4362
I600
sVmedia_type
p4363
Vaudio
p4364
sVactual_start
p4365
V2016-02-20T05:34:06Z
p4366
sVtype
p4367
Vepisode
p4368
sVdisplay_titles
p4369
(dp4370
Vsubtitle
p4371
V20/02/2016
p4372
sVtitle
p4373
VShipping Forecast
p4374
ssVprogramme
p4375
(dp4376
Vtitle
p4377
VShipping Forecast
p4378
sVimage
p4379
(dp4380
Vpid
p4381
Vp0368m65
p4382
ssVexpected_child_count
p4383
NsVpid
p4384
Vb006qfvv
p4385
sVfirst_broadcast_date
p4386
V2006-04-05T00:48:00+01:00
p4387
sVownership
p4388
(dp4389
Vservice
p4390
(dp4391
Vtype
p4392
Vradio
p4393
sVid
p4394
Vbbc_radio_four
p4395
sVkey
p4396
Vradio4
p4397
sVtitle
p4398
VBBC Radio 4
p4399
sssVposition
p4400
NsVtype
p4401
Vbrand
p4402
sssa(dp4403
Vis_blanked
p4404
I00
sVend
p4405
V2016-02-20T05:43:00Z
p4406
sVpid
p4407
Vp03j8zmp
p4408
sVstart
p4409
V2016-02-20T05:30:00Z
p4410
sVis_repeat
p4411
I00
sVduration
p4412
I780
sVprogramme
p4413
(dp4414
Vis_legacy_media
p4415
I00
sVtitle
p4416
V20/02/2016
p4417
sVmedia
p4418
(dp4419
Vexpires
p4420
V2016-03-21T05:43:00Z
p4421
sVavailability
p4422
V29 days left to listen
p4423
sVformat
p4424
Vaudio
p4425
ssVimage
p4426
(dp4427
Vpid
p4428
Vp01lc375
p4429
ssVavailable_until
p4430
V2016-03-21T05:43:00Z
p4431
sVpid
p4432
Vb0707wb2
p4433
sVis_available_mediaset_pc_sd
p4434
I01
sVshort_synopsis
p4435
VThe latest news from BBC Radio 4.
p4436
sVfirst_broadcast_date
p4437
V2016-02-20T05:30:00Z
p4438
sVownership
p4439
(dp4440
Vservice
p4441
(dp4442
Vtype
p4443
Vradio
p4444
sVid
p4445
Vbbc_radio_four
p4446
sVkey
p4447
Vradio4
p4448
sVtitle
p4449
VBBC Radio 4
p4450
sssVposition
p4451
NsVduration
p4452
I780
sVmedia_type
p4453
Vaudio
p4454
sVactual_start
p4455
V2016-02-20T05:47:08Z
p4456
sVtype
p4457
Vepisode
p4458
sVdisplay_titles
p4459
(dp4460
Vsubtitle
p4461
V20/02/2016
p4462
sVtitle
p4463
VNews Briefing
p4464
ssVprogramme
p4465
(dp4466
Vtitle
p4467
VNews Briefing
p4468
sVimage
p4469
(dp4470
Vpid
p4471
Vp01lc375
p4472
ssVexpected_child_count
p4473
NsVpid
p4474
Vb007rhyn
p4475
sVfirst_broadcast_date
p4476
V2007-02-03T05:30:00Z
p4477
sVownership
p4478
(dp4479
Vservice
p4480
(dp4481
Vtype
p4482
Vradio
p4483
sVid
p4484
Vbbc_radio_four
p4485
sVkey
p4486
Vradio4
p4487
sVtitle
p4488
VBBC Radio 4
p4489
sssVposition
p4490
NsVtype
p4491
Vbrand
p4492
sssa(dp4493
Vis_blanked
p4494
I00
sVend
p4495
V2016-02-20T05:45:00Z
p4496
sVpid
p4497
Vp03j8zms
p4498
sVstart
p4499
V2016-02-20T05:43:00Z
p4500
sVis_repeat
p4501
I00
sVduration
p4502
I120
sVprogramme
p4503
(dp4504
Vis_legacy_media
p4505
I00
sVtitle
p4506
V20/02/2016
p4507
sVmedia
p4508
(dp4509
Vexpires
p4510
V2016-03-21T05:45:00Z
p4511
sVavailability
p4512
V29 days left to listen
p4513
sVformat
p4514
Vaudio
p4515
ssVimage
p4516
(dp4517
Vpid
p4518
Vp01lc206
p4519
ssVavailable_until
p4520
V2016-03-21T05:45:00Z
p4521
sVpid
p4522
Vb070hxzb
p4523
sVis_available_mediaset_pc_sd
p4524
I01
sVshort_synopsis
p4525
VA spiritual comment and prayer to begin the day with writer and broadcaster Anna Magnusson
p4526
sVfirst_broadcast_date
p4527
V2016-02-20T05:43:00Z
p4528
sVownership
p4529
(dp4530
Vservice
p4531
(dp4532
Vtype
p4533
Vradio
p4534
sVid
p4535
Vbbc_radio_four
p4536
sVkey
p4537
Vradio4
p4538
sVtitle
p4539
VBBC Radio 4
p4540
sssVposition
p4541
NsVduration
p4542
I120
sVmedia_type
p4543
Vaudio
p4544
sVactual_start
p4545
V2016-02-20T05:49:01Z
p4546
sVtype
p4547
Vepisode
p4548
sVdisplay_titles
p4549
(dp4550
Vsubtitle
p4551
V20/02/2016
p4552
sVtitle
p4553
VPrayer for the Day
p4554
ssVprogramme
p4555
(dp4556
Vtitle
p4557
VPrayer for the Day
p4558
sVimage
p4559
(dp4560
Vpid
p4561
Vp01lc206
p4562
ssVexpected_child_count
p4563
NsVpid
p4564
Vb006qmpj
p4565
sVfirst_broadcast_date
p4566
V2007-01-06T05:43:00Z
p4567
sVownership
p4568
(dp4569
Vservice
p4570
(dp4571
Vtype
p4572
Vradio
p4573
sVid
p4574
Vbbc_radio_four
p4575
sVkey
p4576
Vradio4
p4577
sVtitle
p4578
VBBC Radio 4
p4579
sssVposition
p4580
NsVtype
p4581
Vbrand
p4582
sssa(dp4583
Vis_blanked
p4584
I00
sVend
p4585
V2016-02-20T06:00:00Z
p4586
sVpid
p4587
Vp03j8zmx
p4588
sVstart
p4589
V2016-02-20T05:45:00Z
p4590
sVis_repeat
p4591
I00
sVduration
p4592
I900
sVprogramme
p4593
(dp4594
Vis_legacy_media
p4595
I00
sVtitle
p4596
VI write things I wouldn't tell anyone else
p4597
sVmedia
p4598
(dp4599
Vexpires
p4600
NsVavailability
p4601
VAvailable to listen
p4602
sVformat
p4603
Vaudio
p4604
ssVimage
p4605
(dp4606
Vpid
p4607
Vp02zygrc
p4608
ssVpid
p4609
Vb070w213
p4610
sVis_available_mediaset_pc_sd
p4611
I01
sVshort_synopsis
p4612
VThe programme that starts with its listeners.
p4613
sVfirst_broadcast_date
p4614
V2016-02-20T05:45:00Z
p4615
sVownership
p4616
(dp4617
Vservice
p4618
(dp4619
Vtype
p4620
Vradio
p4621
sVid
p4622
Vbbc_radio_four
p4623
sVkey
p4624
Vradio4
p4625
sVtitle
p4626
VBBC Radio 4
p4627
sssVposition
p4628
NsVduration
p4629
I900
sVmedia_type
p4630
Vaudio
p4631
sVactual_start
p4632
V2016-02-20T06:04:43Z
p4633
sVtype
p4634
Vepisode
p4635
sVdisplay_titles
p4636
(dp4637
Vsubtitle
p4638
VI write things I wouldn't tell anyone else
p4639
sVtitle
p4640
ViPM
p4641
ssVprogramme
p4642
(dp4643
Vtitle
p4644
ViPM
p4645
sVimage
p4646
(dp4647
Vpid
p4648
Vp02zygrc
p4649
ssVexpected_child_count
p4650
NsVpid
p4651
Vb0089nbb
p4652
sVfirst_broadcast_date
p4653
V2007-11-10T17:30:00Z
p4654
sVownership
p4655
(dp4656
Vservice
p4657
(dp4658
Vtype
p4659
Vradio
p4660
sVid
p4661
Vbbc_radio_four
p4662
sVkey
p4663
Vradio4
p4664
sVtitle
p4665
VBBC Radio 4
p4666
sssVposition
p4667
NsVtype
p4668
Vbrand
p4669
sssa(dp4670
Vis_blanked
p4671
I00
sVend
p4672
V2016-02-20T00:30:00Z
p4673
sVpid
p4674
Vp03j8zmd
p4675
sVstart
p4676
V2016-02-20T00:00:00Z
p4677
sVis_repeat
p4678
I00
sVduration
p4679
I1800
sVprogramme
p4680
(dp4681
Vis_legacy_media
p4682
I00
sVtitle
p4683
V20/02/2016
p4684
sVmedia
p4685
(dp4686
Vexpires
p4687
V2016-03-21T00:30:00Z
p4688
sVavailability
p4689
V29 days left to listen
p4690
sVformat
p4691
Vaudio
p4692
ssVimage
p4693
(dp4694
Vpid
p4695
Vp01lcbf6
p4696
ssVavailable_until
p4697
V2016-03-21T00:30:00Z
p4698
sVpid
p4699
Vb0707w9t
p4700
sVis_available_mediaset_pc_sd
p4701
I01
sVshort_synopsis
p4702
VThe latest national and international news from BBC Radio 4.
p4703
sVfirst_broadcast_date
p4704
V2016-02-20T00:00:00Z
p4705
sVownership
p4706
(dp4707
Vservice
p4708
(dp4709
Vtype
p4710
Vradio
p4711
sVid
p4712
Vbbc_radio_four
p4713
sVkey
p4714
Vradio4
p4715
sVtitle
p4716
VBBC Radio 4
p4717
sssVposition
p4718
NsVduration
p4719
I1800
sVmedia_type
p4720
Vaudio
p4721
sVactual_start
p4722
V2016-02-20T00:34:32Z
p4723
sVtype
p4724
Vepisode
p4725
sVdisplay_titles
p4726
(dp4727
Vsubtitle
p4728
V20/02/2016
p4729
sVtitle
p4730
VMidnight News
p4731
ssVprogramme
p4732
(dp4733
Vtitle
p4734
VMidnight News
p4735
sVimage
p4736
(dp4737
Vpid
p4738
Vp01lcbf6
p4739
ssVexpected_child_count
p4740
NsVpid
p4741
Vb00cs19l
p4742
sVfirst_broadcast_date
p4743
V2007-02-03T00:00:00Z
p4744
sVownership
p4745
(dp4746
Vservice
p4747
(dp4748
Vtype
p4749
Vradio
p4750
sVid
p4751
Vbbc_radio_four
p4752
sVkey
p4753
Vradio4
p4754
sVtitle
p4755
VBBC Radio 4
p4756
sssVposition
p4757
NsVtype
p4758
Vbrand
p4759
sssa(dp4760
Vis_blanked
p4761
I00
sVend
p4762
V2016-02-20T00:48:00Z
p4763
sVpid
p4764
Vp03j8zmf
p4765
sVstart
p4766
V2016-02-20T00:30:00Z
p4767
sVis_repeat
p4768
I01
sVduration
p4769
I1080
sVprogramme
p4770
(dp4771
Vis_legacy_media
p4772
I00
sVtitle
p4773
VEpisode 5
p4774
sVmedia
p4775
(dp4776
Vexpires
p4777
V2016-03-21T00:48:00Z
p4778
sVavailability
p4779
V29 days left to listen
p4780
sVformat
p4781
Vaudio
p4782
ssVimage
p4783
(dp4784
Vpid
p4785
Vp03hxj5z
p4786
ssVavailable_until
p4787
V2016-03-21T00:48:00Z
p4788
sVpid
p4789
Vb070hsck
p4790
sVis_available_mediaset_pc_sd
p4791
I01
sVshort_synopsis
p4792
VIt is 1775, and Franklin is no longer of any political use in London.
p4793
sVfirst_broadcast_date
p4794
V2016-02-19T09:45:00Z
p4795
sVownership
p4796
(dp4797
Vservice
p4798
(dp4799
Vtype
p4800
Vradio
p4801
sVid
p4802
Vbbc_radio_four
p4803
sVkey
p4804
Vradio4
p4805
sVtitle
p4806
VBBC Radio 4
p4807
sssVposition
p4808
I5
sVduration
p4809
I900
sVmedia_type
p4810
Vaudio
p4811
sVactual_start
p4812
V2016-02-19T10:08:32Z
p4813
sVtype
p4814
Vepisode
p4815
sVdisplay_titles
p4816
(dp4817
Vsubtitle
p4818
VBenjamin Franklin in London, Episode 5
p4819
sVtitle
p4820
VBook of the Week
p4821
ssVprogramme
p4822
(dp4823
Vtitle
p4824
VBenjamin Franklin in London
p4825
sVimage
p4826
(dp4827
Vpid
p4828
Vp03hxj5z
p4829
ssVexpected_child_count
p4830
I5
sVpid
p4831
Vb071c3cx
p4832
sVfirst_broadcast_date
p4833
V2016-02-15T09:45:00Z
p4834
sVposition
p4835
NsVtype
p4836
Vseries
p4837
sVprogramme
p4838
(dp4839
Vtitle
p4840
VBook of the Week
p4841
sVimage
p4842
(dp4843
Vpid
p4844
Vp01lc1rh
p4845
ssVexpected_child_count
p4846
NsVpid
p4847
Vb006qftk
p4848
sVfirst_broadcast_date
p4849
V2007-01-01T09:45:00Z
p4850
sVownership
p4851
(dp4852
Vservice
p4853
(dp4854
Vtype
p4855
Vradio
p4856
sVid
p4857
Vbbc_radio_four
p4858
sVkey
p4859
Vradio4
p4860
sVtitle
p4861
VBBC Radio 4
p4862
sssVposition
p4863
NsVtype
p4864
Vbrand
p4865
ssssa(dp4866
Vis_blanked
p4867
I00
sVend
p4868
V2016-02-20T01:00:00Z
p4869
sVpid
p4870
Vp03j8zmh
p4871
sVstart
p4872
V2016-02-20T00:48:00Z
p4873
sVis_repeat
p4874
I00
sVduration
p4875
I720
sVprogramme
p4876
(dp4877
Vis_legacy_media
p4878
I00
sVtitle
p4879
V20/02/2016
p4880
sVmedia
p4881
(dp4882
Vexpires
p4883
V2016-03-21T01:00:00Z
p4884
sVavailability
p4885
V29 days left to listen
p4886
sVformat
p4887
Vaudio
p4888
ssVimage
p4889
(dp4890
Vpid
p4891
Vp0368m65
p4892
ssVavailable_until
p4893
V2016-03-21T01:00:00Z
p4894
sVpid
p4895
Vb0707w9w
p4896
sVis_available_mediaset_pc_sd
p4897
I01
sVshort_synopsis
p4898
VThe latest shipping forecast.
p4899
sVfirst_broadcast_date
p4900
V2016-02-20T00:48:00Z
p4901
sVownership
p4902
(dp4903
Vservice
p4904
(dp4905
Vtype
p4906
Vradio
p4907
sVid
p4908
Vbbc_radio_four
p4909
sVkey
p4910
Vradio4
p4911
sVtitle
p4912
VBBC Radio 4
p4913
sssVposition
p4914
NsVduration
p4915
I660
sVmedia_type
p4916
Vaudio
p4917
sVactual_start
p4918
V2016-02-20T01:03:36Z
p4919
sVtype
p4920
Vepisode
p4921
sVdisplay_titles
p4922
(dp4923
Vsubtitle
p4924
V20/02/2016
p4925
sVtitle
p4926
VShipping Forecast
p4927
ssVprogramme
p4928
(dp4929
Vtitle
p4930
VShipping Forecast
p4931
sVimage
p4932
(dp4933
Vpid
p4934
Vp0368m65
p4935
ssVexpected_child_count
p4936
NsVpid
p4937
Vb006qfvv
p4938
sVfirst_broadcast_date
p4939
V2006-04-05T00:48:00+01:00
p4940
sVownership
p4941
(dp4942
Vservice
p4943
(dp4944
Vtype
p4945
Vradio
p4946
sVid
p4947
Vbbc_radio_four
p4948
sVkey
p4949
Vradio4
p4950
sVtitle
p4951
VBBC Radio 4
p4952
sssVposition
p4953
NsVtype
p4954
Vbrand
p4955
sssa(dp4956
Vis_blanked
p4957
I00
sVend
p4958
V2016-02-20T05:20:00Z
p4959
sVpid
p4960
Vp03j8zmk
p4961
sVstart
p4962
V2016-02-20T01:00:00Z
p4963
sVis_repeat
p4964
I00
sVduration
p4965
I15600
sVprogramme
p4966
(dp4967
Vis_legacy_media
p4968
I00
sVtitle
p4969
V20/02/2016
p4970
sVimage
p4971
(dp4972
Vpid
p4973
Vp01lchw0
p4974
ssVpid
p4975
Vb0707w9y
p4976
sVis_available_mediaset_pc_sd
p4977
I00
sVshort_synopsis
p4978
VBBC Radio 4 joins the BBC World Service.
p4979
sVfirst_broadcast_date
p4980
V2016-02-20T01:00:00Z
p4981
sVownership
p4982
(dp4983
Vservice
p4984
(dp4985
Vtype
p4986
Vradio
p4987
sVid
p4988
Vbbc_world_service
p4989
sVkey
p4990
Vworldserviceradio
p4991
sVtitle
p4992
VBBC World Service
p4993
sssVposition
p4994
NsVduration
p4995
I15600
sVmedia_type
p4996
Vaudio
p4997
sVtype
p4998
Vepisode
p4999
sVdisplay_titles
p5000
(dp5001
Vsubtitle
p5002
V20/02/2016
p5003
sVtitle
p5004
VSelection of BBC World Service Programmes
p5005
ssVprogramme
p5006
(dp5007
Vtitle
p5008
VSelection of BBC World Service Programmes
p5009
sVimage
p5010
(dp5011
Vpid
p5012
Vp01lchw0
p5013
ssVexpected_child_count
p5014
NsVpid
p5015
Vb006s54y
p5016
sVfirst_broadcast_date
p5017
V2007-01-06T01:00:00Z
p5018
sVownership
p5019
(dp5020
Vservice
p5021
(dp5022
Vtype
p5023
Vradio
p5024
sVid
p5025
Vbbc_world_service
p5026
sVkey
p5027
Vworldserviceradio
p5028
sVtitle
p5029
VBBC World Service
p5030
sssVposition
p5031
NsVtype
p5032
Vbrand
p5033
sssa(dp5034
Vis_blanked
p5035
I00
sVend
p5036
V2016-02-20T05:30:00Z
p5037
sVpid
p5038
Vp03j8zml
p5039
sVstart
p5040
V2016-02-20T05:20:00Z
p5041
sVis_repeat
p5042
I00
sVduration
p5043
I600
sVprogramme
p5044
(dp5045
Vis_legacy_media
p5046
I00
sVtitle
p5047
V20/02/2016
p5048
sVmedia
p5049
(dp5050
Vexpires
p5051
V2016-03-21T05:30:00Z
p5052
sVavailability
p5053
V29 days left to listen
p5054
sVformat
p5055
Vaudio
p5056
ssVimage
p5057
(dp5058
Vpid
p5059
Vp0368m65
p5060
ssVavailable_until
p5061
V2016-03-21T05:30:00Z
p5062
sVpid
p5063
Vb0707wb0
p5064
sVis_available_mediaset_pc_sd
p5065
I01
sVshort_synopsis
p5066
VThe latest shipping forecast.
p5067
sVfirst_broadcast_date
p5068
V2016-02-20T05:20:00Z
p5069
sVownership
p5070
(dp5071
Vservice
p5072
(dp5073
Vtype
p5074
Vradio
p5075
sVid
p5076
Vbbc_radio_four
p5077
sVkey
p5078
Vradio4
p5079
sVtitle
p5080
VBBC Radio 4
p5081
sssVposition
p5082
NsVduration
p5083
I600
sVmedia_type
p5084
Vaudio
p5085
sVactual_start
p5086
V2016-02-20T05:34:06Z
p5087
sVtype
p5088
Vepisode
p5089
sVdisplay_titles
p5090
(dp5091
Vsubtitle
p5092
V20/02/2016
p5093
sVtitle
p5094
VShipping Forecast
p5095
ssVprogramme
p5096
(dp5097
Vtitle
p5098
VShipping Forecast
p5099
sVimage
p5100
(dp5101
Vpid
p5102
Vp0368m65
p5103
ssVexpected_child_count
p5104
NsVpid
p5105
Vb006qfvv
p5106
sVfirst_broadcast_date
p5107
V2006-04-05T00:48:00+01:00
p5108
sVownership
p5109
(dp5110
Vservice
p5111
(dp5112
Vtype
p5113
Vradio
p5114
sVid
p5115
Vbbc_radio_four
p5116
sVkey
p5117
Vradio4
p5118
sVtitle
p5119
VBBC Radio 4
p5120
sssVposition
p5121
NsVtype
p5122
Vbrand
p5123
sssa(dp5124
Vis_blanked
p5125
I00
sVend
p5126
V2016-02-20T05:43:00Z
p5127
sVpid
p5128
Vp03j8zmp
p5129
sVstart
p5130
V2016-02-20T05:30:00Z
p5131
sVis_repeat
p5132
I00
sVduration
p5133
I780
sVprogramme
p5134
(dp5135
Vis_legacy_media
p5136
I00
sVtitle
p5137
V20/02/2016
p5138
sVmedia
p5139
(dp5140
Vexpires
p5141
V2016-03-21T05:43:00Z
p5142
sVavailability
p5143
V29 days left to listen
p5144
sVformat
p5145
Vaudio
p5146
ssVimage
p5147
(dp5148
Vpid
p5149
Vp01lc375
p5150
ssVavailable_until
p5151
V2016-03-21T05:43:00Z
p5152
sVpid
p5153
Vb0707wb2
p5154
sVis_available_mediaset_pc_sd
p5155
I01
sVshort_synopsis
p5156
VThe latest news from BBC Radio 4.
p5157
sVfirst_broadcast_date
p5158
V2016-02-20T05:30:00Z
p5159
sVownership
p5160
(dp5161
Vservice
p5162
(dp5163
Vtype
p5164
Vradio
p5165
sVid
p5166
Vbbc_radio_four
p5167
sVkey
p5168
Vradio4
p5169
sVtitle
p5170
VBBC Radio 4
p5171
sssVposition
p5172
NsVduration
p5173
I780
sVmedia_type
p5174
Vaudio
p5175
sVactual_start
p5176
V2016-02-20T05:47:08Z
p5177
sVtype
p5178
Vepisode
p5179
sVdisplay_titles
p5180
(dp5181
Vsubtitle
p5182
V20/02/2016
p5183
sVtitle
p5184
VNews Briefing
p5185
ssVprogramme
p5186
(dp5187
Vtitle
p5188
VNews Briefing
p5189
sVimage
p5190
(dp5191
Vpid
p5192
Vp01lc375
p5193
ssVexpected_child_count
p5194
NsVpid
p5195
Vb007rhyn
p5196
sVfirst_broadcast_date
p5197
V2007-02-03T05:30:00Z
p5198
sVownership
p5199
(dp5200
Vservice
p5201
(dp5202
Vtype
p5203
Vradio
p5204
sVid
p5205
Vbbc_radio_four
p5206
sVkey
p5207
Vradio4
p5208
sVtitle
p5209
VBBC Radio 4
p5210
sssVposition
p5211
NsVtype
p5212
Vbrand
p5213
sssa(dp5214
Vis_blanked
p5215
I00
sVend
p5216
V2016-02-20T05:45:00Z
p5217
sVpid
p5218
Vp03j8zms
p5219
sVstart
p5220
V2016-02-20T05:43:00Z
p5221
sVis_repeat
p5222
I00
sVduration
p5223
I120
sVprogramme
p5224
(dp5225
Vis_legacy_media
p5226
I00
sVtitle
p5227
V20/02/2016
p5228
sVmedia
p5229
(dp5230
Vexpires
p5231
V2016-03-21T05:45:00Z
p5232
sVavailability
p5233
V29 days left to listen
p5234
sVformat
p5235
Vaudio
p5236
ssVimage
p5237
(dp5238
Vpid
p5239
Vp01lc206
p5240
ssVavailable_until
p5241
V2016-03-21T05:45:00Z
p5242
sVpid
p5243
Vb070hxzb
p5244
sVis_available_mediaset_pc_sd
p5245
I01
sVshort_synopsis
p5246
VA spiritual comment and prayer to begin the day with writer and broadcaster Anna Magnusson
p5247
sVfirst_broadcast_date
p5248
V2016-02-20T05:43:00Z
p5249
sVownership
p5250
(dp5251
Vservice
p5252
(dp5253
Vtype
p5254
Vradio
p5255
sVid
p5256
Vbbc_radio_four
p5257
sVkey
p5258
Vradio4
p5259
sVtitle
p5260
VBBC Radio 4
p5261
sssVposition
p5262
NsVduration
p5263
I120
sVmedia_type
p5264
Vaudio
p5265
sVactual_start
p5266
V2016-02-20T05:49:01Z
p5267
sVtype
p5268
Vepisode
p5269
sVdisplay_titles
p5270
(dp5271
Vsubtitle
p5272
V20/02/2016
p5273
sVtitle
p5274
VPrayer for the Day
p5275
ssVprogramme
p5276
(dp5277
Vtitle
p5278
VPrayer for the Day
p5279
sVimage
p5280
(dp5281
Vpid
p5282
Vp01lc206
p5283
ssVexpected_child_count
p5284
NsVpid
p5285
Vb006qmpj
p5286
sVfirst_broadcast_date
p5287
V2007-01-06T05:43:00Z
p5288
sVownership
p5289
(dp5290
Vservice
p5291
(dp5292
Vtype
p5293
Vradio
p5294
sVid
p5295
Vbbc_radio_four
p5296
sVkey
p5297
Vradio4
p5298
sVtitle
p5299
VBBC Radio 4
p5300
sssVposition
p5301
NsVtype
p5302
Vbrand
p5303
sssa(dp5304
Vis_blanked
p5305
I00
sVend
p5306
V2016-02-20T06:00:00Z
p5307
sVpid
p5308
Vp03j8zmx
p5309
sVstart
p5310
V2016-02-20T05:45:00Z
p5311
sVis_repeat
p5312
I00
sVduration
p5313
I900
sVprogramme
p5314
(dp5315
Vis_legacy_media
p5316
I00
sVtitle
p5317
VI write things I wouldn't tell anyone else
p5318
sVmedia
p5319
(dp5320
Vexpires
p5321
NsVavailability
p5322
VAvailable to listen
p5323
sVformat
p5324
Vaudio
p5325
ssVimage
p5326
(dp5327
Vpid
p5328
Vp02zygrc
p5329
ssVpid
p5330
Vb070w213
p5331
sVis_available_mediaset_pc_sd
p5332
I01
sVshort_synopsis
p5333
VThe programme that starts with its listeners.
p5334
sVfirst_broadcast_date
p5335
V2016-02-20T05:45:00Z
p5336
sVownership
p5337
(dp5338
Vservice
p5339
(dp5340
Vtype
p5341
Vradio
p5342
sVid
p5343
Vbbc_radio_four
p5344
sVkey
p5345
Vradio4
p5346
sVtitle
p5347
VBBC Radio 4
p5348
sssVposition
p5349
NsVduration
p5350
I900
sVmedia_type
p5351
Vaudio
p5352
sVactual_start
p5353
V2016-02-20T06:04:43Z
p5354
sVtype
p5355
Vepisode
p5356
sVdisplay_titles
p5357
(dp5358
Vsubtitle
p5359
VI write things I wouldn't tell anyone else
p5360
sVtitle
p5361
ViPM
p5362
ssVprogramme
p5363
(dp5364
Vtitle
p5365
ViPM
p5366
sVimage
p5367
(dp5368
Vpid
p5369
Vp02zygrc
p5370
ssVexpected_child_count
p5371
NsVpid
p5372
Vb0089nbb
p5373
sVfirst_broadcast_date
p5374
V2007-11-10T17:30:00Z
p5375
sVownership
p5376
(dp5377
Vservice
p5378
(dp5379
Vtype
p5380
Vradio
p5381
sVid
p5382
Vbbc_radio_four
p5383
sVkey
p5384
Vradio4
p5385
sVtitle
p5386
VBBC Radio 4
p5387
sssVposition
p5388
NsVtype
p5389
Vbrand
p5390
sssa(dp5391
Vis_blanked
p5392
I00
sVend
p5393
V2016-02-20T06:04:00Z
p5394
sVpid
p5395
Vp03j90s6
p5396
sVstart
p5397
V2016-02-20T06:00:00Z
p5398
sVis_repeat
p5399
I00
sVduration
p5400
I240
sVprogramme
p5401
(dp5402
Vis_legacy_media
p5403
I00
sVtitle
p5404
V20/02/2016
p5405
sVmedia
p5406
(dp5407
Vexpires
p5408
V2016-03-21T06:04:00Z
p5409
sVavailability
p5410
V29 days left to listen
p5411
sVformat
p5412
Vaudio
p5413
ssVimage
p5414
(dp5415
Vpid
p5416
Vp01lcj0d
p5417
ssVavailable_until
p5418
V2016-03-21T06:04:00Z
p5419
sVpid
p5420
Vb0707wb4
p5421
sVis_available_mediaset_pc_sd
p5422
I01
sVshort_synopsis
p5423
VNews headlines, plus a look at the papers.
p5424
sVfirst_broadcast_date
p5425
V2016-02-20T06:00:00Z
p5426
sVownership
p5427
(dp5428
Vservice
p5429
(dp5430
Vtype
p5431
Vradio
p5432
sVid
p5433
Vbbc_radio_four
p5434
sVkey
p5435
Vradio4
p5436
sVtitle
p5437
VBBC Radio 4
p5438
sssVposition
p5439
NsVduration
p5440
I240
sVmedia_type
p5441
Vaudio
p5442
sVactual_start
p5443
V2016-02-20T06:08:05Z
p5444
sVtype
p5445
Vepisode
p5446
sVdisplay_titles
p5447
(dp5448
Vsubtitle
p5449
V20/02/2016
p5450
sVtitle
p5451
VNews and Papers
p5452
ssVprogramme
p5453
(dp5454
Vtitle
p5455
VNews and Papers
p5456
sVimage
p5457
(dp5458
Vpid
p5459
Vp01lcj0d
p5460
ssVexpected_child_count
p5461
NsVpid
p5462
Vb007rhyy
p5463
sVfirst_broadcast_date
p5464
V2007-02-03T06:00:00Z
p5465
sVownership
p5466
(dp5467
Vservice
p5468
(dp5469
Vtype
p5470
Vradio
p5471
sVid
p5472
Vbbc_radio_four
p5473
sVkey
p5474
Vradio4
p5475
sVtitle
p5476
VBBC Radio 4
p5477
sssVposition
p5478
NsVtype
p5479
Vbrand
p5480
sssa(dp5481
Vis_blanked
p5482
I00
sVend
p5483
V2016-02-20T06:07:00Z
p5484
sVpid
p5485
Vp03j90s7
p5486
sVstart
p5487
V2016-02-20T06:04:00Z
p5488
sVis_repeat
p5489
I00
sVduration
p5490
I180
sVprogramme
p5491
(dp5492
Vis_legacy_media
p5493
I00
sVtitle
p5494
V20/02/2016
p5495
sVimage
p5496
(dp5497
Vpid
p5498
Vp01lc36f
p5499
ssVpid
p5500
Vb0707wb6
p5501
sVis_available_mediaset_pc_sd
p5502
I00
sVshort_synopsis
p5503
VThe latest weather forecast.
p5504
sVfirst_broadcast_date
p5505
V2016-02-20T06:04:00Z
p5506
sVownership
p5507
(dp5508
Vservice
p5509
(dp5510
Vtype
p5511
Vradio
p5512
sVid
p5513
Vbbc_radio_four
p5514
sVkey
p5515
Vradio4
p5516
sVtitle
p5517
VBBC Radio 4
p5518
sssVposition
p5519
NsVduration
p5520
I180
sVmedia_type
p5521
Vaudio
p5522
sVtype
p5523
Vepisode
p5524
sVdisplay_titles
p5525
(dp5526
Vsubtitle
p5527
V20/02/2016
p5528
sVtitle
p5529
VWeather
p5530
ssVprogramme
p5531
(dp5532
Vtitle
p5533
VWeather
p5534
sVimage
p5535
(dp5536
Vpid
p5537
Vp01lc36f
p5538
ssVexpected_child_count
p5539
NsVpid
p5540
Vb007rn05
p5541
sVfirst_broadcast_date
p5542
V2006-04-05T12:57:00+01:00
p5543
sVownership
p5544
(dp5545
Vservice
p5546
(dp5547
Vtype
p5548
Vradio
p5549
sVid
p5550
Vbbc_radio_four
p5551
sVkey
p5552
Vradio4
p5553
sVtitle
p5554
VBBC Radio 4
p5555
sssVposition
p5556
NsVtype
p5557
Vbrand
p5558
sssa(dp5559
Vis_blanked
p5560
I00
sVend
p5561
V2016-02-20T06:30:00Z
p5562
sVpid
p5563
Vp03j90s8
p5564
sVstart
p5565
V2016-02-20T06:07:00Z
p5566
sVis_repeat
p5567
I01
sVduration
p5568
I1380
sVprogramme
p5569
(dp5570
Vis_legacy_media
p5571
I00
sVtitle
p5572
VWalking with a Purpose: The Surrey Hills
p5573
sVmedia
p5574
(dp5575
Vexpires
p5576
NsVavailability
p5577
VAvailable to listen
p5578
sVformat
p5579
Vaudio
p5580
ssVimage
p5581
(dp5582
Vpid
p5583
Vp03jbwv9
p5584
ssVpid
p5585
Vb070hktk
p5586
sVis_available_mediaset_pc_sd
p5587
I01
sVshort_synopsis
p5588
VClare Balding walks in the Surrey Hills with Jenni Williams and her disabled daughter Eve.
p5589
sVfirst_broadcast_date
p5590
V2016-02-18T15:00:00Z
p5591
sVownership
p5592
(dp5593
Vservice
p5594
(dp5595
Vtype
p5596
Vradio
p5597
sVid
p5598
Vbbc_radio_four
p5599
sVkey
p5600
Vradio4
p5601
sVtitle
p5602
VBBC Radio 4
p5603
sssVposition
p5604
NsVduration
p5605
I1380
sVmedia_type
p5606
Vaudio
p5607
sVactual_start
p5608
V2016-02-18T15:30:00Z
p5609
sVtype
p5610
Vepisode
p5611
sVdisplay_titles
p5612
(dp5613
Vsubtitle
p5614
VSeries 32, Walking with a Purpose: The Surrey Hills
p5615
sVtitle
p5616
VRamblings
p5617
ssVprogramme
p5618
(dp5619
Vtitle
p5620
VSeries 32
p5621
sVimage
p5622
(dp5623
Vpid
p5624
Vp02sgcv5
p5625
ssVexpected_child_count
p5626
I6
sVpid
p5627
Vb0720z4n
p5628
sVfirst_broadcast_date
p5629
V2016-02-18T15:00:00Z
p5630
sVposition
p5631
I32
sVtype
p5632
Vseries
p5633
sVprogramme
p5634
(dp5635
Vtitle
p5636
VRamblings
p5637
sVimage
p5638
(dp5639
Vpid
p5640
Vp02sgcv5
p5641
ssVexpected_child_count
p5642
NsVpid
p5643
Vb006xrr2
p5644
sVfirst_broadcast_date
p5645
V2002-09-27T15:00:00+01:00
p5646
sVownership
p5647
(dp5648
Vservice
p5649
(dp5650
Vtype
p5651
Vradio
p5652
sVid
p5653
Vbbc_radio_four
p5654
sVkey
p5655
Vradio4
p5656
sVtitle
p5657
VBBC Radio 4
p5658
sssVposition
p5659
NsVtype
p5660
Vbrand
p5661
ssssa(dp5662
Vis_blanked
p5663
I00
sVend
p5664
V2016-02-20T06:57:00Z
p5665
sVpid
p5666
Vp03j90sb
p5667
sVstart
p5668
V2016-02-20T06:30:00Z
p5669
sVis_repeat
p5670
I00
sVduration
p5671
I1620
sVprogramme
p5672
(dp5673
Vis_legacy_media
p5674
I00
sVtitle
p5675
VFarming Today This Week: Mental Health
p5676
sVmedia
p5677
(dp5678
Vexpires
p5679
V2016-03-21T06:57:00Z
p5680
sVavailability
p5681
V29 days left to listen
p5682
sVformat
p5683
Vaudio
p5684
ssVimage
p5685
(dp5686
Vpid
p5687
Vp01lqzr8
p5688
ssVavailable_until
p5689
V2016-03-21T06:57:00Z
p5690
sVpid
p5691
Vb0713f1d
p5692
sVis_available_mediaset_pc_sd
p5693
I01
sVshort_synopsis
p5694
VDavid Gregory-Kumar explores the issues surrounding mental health in rural areas.
p5695
sVfirst_broadcast_date
p5696
V2016-02-20T06:30:00Z
p5697
sVownership
p5698
(dp5699
Vservice
p5700
(dp5701
Vtype
p5702
Vradio
p5703
sVid
p5704
Vbbc_radio_four
p5705
sVkey
p5706
Vradio4
p5707
sVtitle
p5708
VBBC Radio 4
p5709
sssVposition
p5710
NsVduration
p5711
I1620
sVmedia_type
p5712
Vaudio
p5713
sVactual_start
p5714
V2016-02-20T07:01:18Z
p5715
sVtype
p5716
Vepisode
p5717
sVdisplay_titles
p5718
(dp5719
Vsubtitle
p5720
VFarming Today This Week: Mental Health
p5721
sVtitle
p5722
VFarming Today
p5723
ssVprogramme
p5724
(dp5725
Vtitle
p5726
VFarming Today
p5727
sVimage
p5728
(dp5729
Vpid
p5730
Vp01lcqw7
p5731
ssVexpected_child_count
p5732
NsVpid
p5733
Vb006qj8q
p5734
sVfirst_broadcast_date
p5735
V2007-01-06T06:35:00Z
p5736
sVownership
p5737
(dp5738
Vservice
p5739
(dp5740
Vtype
p5741
Vradio
p5742
sVid
p5743
Vbbc_radio_four
p5744
sVkey
p5745
Vradio4
p5746
sVtitle
p5747
VBBC Radio 4
p5748
sssVposition
p5749
NsVtype
p5750
Vbrand
p5751
sssa(dp5752
Vis_blanked
p5753
I00
sVend
p5754
V2016-02-20T07:00:00Z
p5755
sVpid
p5756
Vp03j90sc
p5757
sVstart
p5758
V2016-02-20T06:57:00Z
p5759
sVis_repeat
p5760
I00
sVduration
p5761
I180
sVprogramme
p5762
(dp5763
Vis_legacy_media
p5764
I00
sVtitle
p5765
V20/02/2016
p5766
sVimage
p5767
(dp5768
Vpid
p5769
Vp01lc36f
p5770
ssVpid
p5771
Vb0707wb8
p5772
sVis_available_mediaset_pc_sd
p5773
I00
sVshort_synopsis
p5774
VThe latest weather forecast.
p5775
sVfirst_broadcast_date
p5776
V2016-02-20T06:57:00Z
p5777
sVownership
p5778
(dp5779
Vservice
p5780
(dp5781
Vtype
p5782
Vradio
p5783
sVid
p5784
Vbbc_radio_four
p5785
sVkey
p5786
Vradio4
p5787
sVtitle
p5788
VBBC Radio 4
p5789
sssVposition
p5790
NsVduration
p5791
I180
sVmedia_type
p5792
Vaudio
p5793
sVtype
p5794
Vepisode
p5795
sVdisplay_titles
p5796
(dp5797
Vsubtitle
p5798
V20/02/2016
p5799
sVtitle
p5800
VWeather
p5801
ssVprogramme
p5802
(dp5803
Vtitle
p5804
VWeather
p5805
sVimage
p5806
(dp5807
Vpid
p5808
Vp01lc36f
p5809
ssVexpected_child_count
p5810
NsVpid
p5811
Vb007rn05
p5812
sVfirst_broadcast_date
p5813
V2006-04-05T12:57:00+01:00
p5814
sVownership
p5815
(dp5816
Vservice
p5817
(dp5818
Vtype
p5819
Vradio
p5820
sVid
p5821
Vbbc_radio_four
p5822
sVkey
p5823
Vradio4
p5824
sVtitle
p5825
VBBC Radio 4
p5826
sssVposition
p5827
NsVtype
p5828
Vbrand
p5829
sssa(dp5830
Vis_blanked
p5831
I00
sVend
p5832
V2016-02-20T09:00:00Z
p5833
sVpid
p5834
Vp03j90sd
p5835
sVstart
p5836
V2016-02-20T07:00:00Z
p5837
sVis_repeat
p5838
I00
sVduration
p5839
I7200
sVprogramme
p5840
(dp5841
Vis_legacy_media
p5842
I00
sVtitle
p5843
V20/02/2016
p5844
sVmedia
p5845
(dp5846
Vexpires
p5847
V2016-03-21T09:00:00Z
p5848
sVavailability
p5849
V29 days left to listen
p5850
sVformat
p5851
Vaudio
p5852
ssVimage
p5853
(dp5854
Vpid
p5855
Vp036d2vl
p5856
ssVavailable_until
p5857
V2016-03-21T09:00:00Z
p5858
sVpid
p5859
Vb0713f1g
p5860
sVis_available_mediaset_pc_sd
p5861
I01
sVshort_synopsis
p5862
VMorning news and current affairs. Including Sports Desk, Weather and Thought for the Day.
p5863
sVfirst_broadcast_date
p5864
V2016-02-20T07:00:00Z
p5865
sVownership
p5866
(dp5867
Vservice
p5868
(dp5869
Vtype
p5870
Vradio
p5871
sVid
p5872
Vbbc_radio_four
p5873
sVkey
p5874
Vradio4
p5875
sVtitle
p5876
VBBC Radio 4
p5877
sssVposition
p5878
I21531
sVduration
p5879
I7200
sVmedia_type
p5880
Vaudio
p5881
sVactual_start
p5882
V2016-02-20T09:13:02Z
p5883
sVtype
p5884
Vepisode
p5885
sVdisplay_titles
p5886
(dp5887
Vsubtitle
p5888
V20/02/2016
p5889
sVtitle
p5890
VToday
p5891
ssVprogramme
p5892
(dp5893
Vtitle
p5894
VToday
p5895
sVimage
p5896
(dp5897
Vpid
p5898
Vp036d2vl
p5899
ssVexpected_child_count
p5900
NsVpid
p5901
Vb006qj9z
p5902
sVfirst_broadcast_date
p5903
V1966-10-27T07:15:00Z
p5904
sVownership
p5905
(dp5906
Vservice
p5907
(dp5908
Vtype
p5909
Vradio
p5910
sVid
p5911
Vbbc_radio_four
p5912
sVkey
p5913
Vradio4
p5914
sVtitle
p5915
VBBC Radio 4
p5916
sssVposition
p5917
NsVtype
p5918
Vbrand
p5919
sssa(dp5920
Vis_blanked
p5921
I00
sVend
p5922
V2016-02-20T10:30:00Z
p5923
sVpid
p5924
Vp03j90sf
p5925
sVstart
p5926
V2016-02-20T09:00:00Z
p5927
sVis_repeat
p5928
I00
sVduration
p5929
I5400
sVprogramme
p5930
(dp5931
Vis_legacy_media
p5932
I00
sVtitle
p5933
VLaurence Fox
p5934
sVmedia
p5935
(dp5936
Vexpires
p5937
NsVavailability
p5938
VAvailable to listen
p5939
sVformat
p5940
Vaudio
p5941
ssVimage
p5942
(dp5943
Vpid
p5944
Vp03jrzr1
p5945
ssVpid
p5946
Vb0713m2l
p5947
sVis_available_mediaset_pc_sd
p5948
I01
sVshort_synopsis
p5949
VActor and musician Laurence Fox joins Aasmah Mir and the Rev Richard Coles.
p5950
sVfirst_broadcast_date
p5951
V2016-02-20T09:00:00Z
p5952
sVownership
p5953
(dp5954
Vservice
p5955
(dp5956
Vtype
p5957
Vradio
p5958
sVid
p5959
Vbbc_radio_four
p5960
sVkey
p5961
Vradio4
p5962
sVtitle
p5963
VBBC Radio 4
p5964
sssVposition
p5965
NsVduration
p5966
I5280
sVmedia_type
p5967
Vaudio
p5968
sVactual_start
p5969
V2016-02-20T10:34:54Z
p5970
sVtype
p5971
Vepisode
p5972
sVdisplay_titles
p5973
(dp5974
Vsubtitle
p5975
VLaurence Fox
p5976
sVtitle
p5977
VSaturday Live
p5978
ssVprogramme
p5979
(dp5980
Vtitle
p5981
VSaturday Live
p5982
sVimage
p5983
(dp5984
Vpid
p5985
Vp025ppwx
p5986
ssVexpected_child_count
p5987
NsVpid
p5988
Vb006qgj4
p5989
sVfirst_broadcast_date
p5990
V2007-01-06T09:00:00Z
p5991
sVownership
p5992
(dp5993
Vservice
p5994
(dp5995
Vtype
p5996
Vradio
p5997
sVid
p5998
Vbbc_radio_four
p5999
sVkey
p6000
Vradio4
p6001
sVtitle
p6002
VBBC Radio 4
p6003
sssVposition
p6004
NsVtype
p6005
Vbrand
p6006
sssa(dp6007
Vis_blanked
p6008
I00
sVend
p6009
V2016-02-20T11:00:00Z
p6010
sVpid
p6011
Vp03j90sg
p6012
sVstart
p6013
V2016-02-20T10:30:00Z
p6014
sVis_repeat
p6015
I00
sVduration
p6016
I1800
sVprogramme
p6017
(dp6018
Vis_legacy_media
p6019
I00
sVtitle
p6020
VThe French Connection
p6021
sVmedia
p6022
(dp6023
Vexpires
p6024
NsVavailability
p6025
VAvailable to listen
p6026
sVformat
p6027
Vaudio
p6028
ssVimage
p6029
(dp6030
Vpid
p6031
Vp01lyfvp
p6032
ssVpid
p6033
Vb0713m2n
p6034
sVis_available_mediaset_pc_sd
p6035
I01
sVshort_synopsis
p6036
VPaul Gambaccini assesses the first R-rated movie to win the Best Picture Oscar.
p6037
sVfirst_broadcast_date
p6038
V2016-02-20T10:30:00Z
p6039
sVownership
p6040
(dp6041
Vservice
p6042
(dp6043
Vtype
p6044
Vradio
p6045
sVid
p6046
Vbbc_radio_four
p6047
sVkey
p6048
Vradio4
p6049
sVtitle
p6050
VBBC Radio 4
p6051
sssVposition
p6052
NsVduration
p6053
I1800
sVmedia_type
p6054
Vaudio
p6055
sVactual_start
p6056
V2016-02-20T11:04:31Z
p6057
sVtype
p6058
Vepisode
p6059
sVdisplay_titles
p6060
(dp6061
Vsubtitle
p6062
VSeries 6, The French Connection
p6063
sVtitle
p6064
VAnd The Academy Award Goes To ...
p6065
ssVprogramme
p6066
(dp6067
Vtitle
p6068
VSeries 6
p6069
sVimage
p6070
(dp6071
Vpid
p6072
Vp01lyfvp
p6073
ssVexpected_child_count
p6074
I3
sVpid
p6075
Vb071c6wf
p6076
sVfirst_broadcast_date
p6077
V2016-02-13T10:30:00Z
p6078
sVposition
p6079
I6
sVtype
p6080
Vseries
p6081
sVprogramme
p6082
(dp6083
Vtitle
p6084
VAnd The Academy Award Goes To ...
p6085
sVimage
p6086
(dp6087
Vpid
p6088
Vp01lyfvp
p6089
ssVexpected_child_count
p6090
NsVpid
p6091
Vb00h3wk3
p6092
sVfirst_broadcast_date
p6093
V2008-02-02T10:30:00Z
p6094
sVownership
p6095
(dp6096
Vservice
p6097
(dp6098
Vtype
p6099
Vradio
p6100
sVid
p6101
Vbbc_radio_four
p6102
sVkey
p6103
Vradio4
p6104
sVtitle
p6105
VBBC Radio 4
p6106
sssVposition
p6107
NsVtype
p6108
Vbrand
p6109
ssssa(dp6110
Vis_blanked
p6111
I00
sVend
p6112
V2016-02-20T11:30:00Z
p6113
sVpid
p6114
Vp03jnp50
p6115
sVstart
p6116
V2016-02-20T11:00:00Z
p6117
sVis_repeat
p6118
I00
sVduration
p6119
I1800
sVprogramme
p6120
(dp6121
Vis_legacy_media
p6122
I00
sVtitle
p6123
VEU Special
p6124
sVmedia
p6125
(dp6126
Vexpires
p6127
NsVavailability
p6128
VAvailable to listen
p6129
sVformat
p6130
Vaudio
p6131
ssVimage
p6132
(dp6133
Vpid
p6134
Vp0299txp
p6135
ssVpid
p6136
Vb072jwy1
p6137
sVis_available_mediaset_pc_sd
p6138
I01
sVshort_synopsis
p6139
VSteve Richards and guests debate the implications of David Cameron's EU negotiation.
p6140
sVfirst_broadcast_date
p6141
V2016-02-20T11:00:00Z
p6142
sVownership
p6143
(dp6144
Vservice
p6145
(dp6146
Vtype
p6147
Vradio
p6148
sVid
p6149
Vbbc_radio_four
p6150
sVkey
p6151
Vradio4
p6152
sVtitle
p6153
VBBC Radio 4
p6154
sssVposition
p6155
NsVduration
p6156
I3420
sVmedia_type
p6157
Vaudio
p6158
sVactual_start
p6159
V2016-02-20T11:34:30Z
p6160
sVtype
p6161
Vepisode
p6162
sVdisplay_titles
p6163
(dp6164
Vsubtitle
p6165
VEU Special
p6166
sVtitle
p6167
VWeek in Westminster
p6168
ssVprogramme
p6169
(dp6170
Vtitle
p6171
VWeek in Westminster
p6172
sVimage
p6173
(dp6174
Vpid
p6175
Vp0299txp
p6176
ssVexpected_child_count
p6177
NsVpid
p6178
Vb006qjfq
p6179
sVfirst_broadcast_date
p6180
V2007-01-13T11:00:00Z
p6181
sVownership
p6182
(dp6183
Vservice
p6184
(dp6185
Vtype
p6186
Vradio
p6187
sVid
p6188
Vbbc_radio_four
p6189
sVkey
p6190
Vradio4
p6191
sVtitle
p6192
VBBC Radio 4
p6193
sssVposition
p6194
NsVtype
p6195
Vbrand
p6196
sssa(dp6197
Vis_blanked
p6198
I00
sVend
p6199
V2016-02-20T12:00:00Z
p6200
sVpid
p6201
Vp03j90sk
p6202
sVstart
p6203
V2016-02-20T11:30:00Z
p6204
sVis_repeat
p6205
I00
sVduration
p6206
I1800
sVprogramme
p6207
(dp6208
Vis_legacy_media
p6209
I00
sVtitle
p6210
VA Man Dies Twice
p6211
sVmedia
p6212
(dp6213
Vexpires
p6214
NsVavailability
p6215
VAvailable to listen
p6216
sVformat
p6217
Vaudio
p6218
ssVimage
p6219
(dp6220
Vpid
p6221
Vp01lcg42
p6222
ssVpid
p6223
Vb0707wbb
p6224
sVis_available_mediaset_pc_sd
p6225
I01
sVshort_synopsis
p6226
VThe Bosnian town keen to forget its recent murderous past.
p6227
sVfirst_broadcast_date
p6228
V2016-02-20T11:30:00Z
p6229
sVownership
p6230
(dp6231
Vservice
p6232
(dp6233
Vtype
p6234
Vradio
p6235
sVid
p6236
Vbbc_radio_four
p6237
sVkey
p6238
Vradio4
p6239
sVtitle
p6240
VBBC Radio 4
p6241
sssVposition
p6242
NsVduration
p6243
I1800
sVmedia_type
p6244
Vaudio
p6245
sVactual_start
p6246
V2016-02-20T12:03:40Z
p6247
sVtype
p6248
Vepisode
p6249
sVdisplay_titles
p6250
(dp6251
Vsubtitle
p6252
VA Man Dies Twice
p6253
sVtitle
p6254
VFrom Our Own Correspondent
p6255
ssVprogramme
p6256
(dp6257
Vtitle
p6258
VFrom Our Own Correspondent
p6259
sVimage
p6260
(dp6261
Vpid
p6262
Vp01lcg42
p6263
ssVexpected_child_count
p6264
NsVpid
p6265
Vb006qjlq
p6266
sVfirst_broadcast_date
p6267
V2007-01-06T11:30:00Z
p6268
sVownership
p6269
(dp6270
Vservice
p6271
(dp6272
Vtype
p6273
Vradio
p6274
sVid
p6275
Vbbc_radio_four
p6276
sVkey
p6277
Vradio4
p6278
sVtitle
p6279
VBBC Radio 4
p6280
sssVposition
p6281
NsVtype
p6282
Vbrand
p6283
sssa(dp6284
Vis_blanked
p6285
I00
sVend
p6286
V2016-02-20T12:04:00Z
p6287
sVpid
p6288
Vp03j90sl
p6289
sVstart
p6290
V2016-02-20T12:00:00Z
p6291
sVis_repeat
p6292
I00
sVduration
p6293
I240
sVprogramme
p6294
(dp6295
Vis_legacy_media
p6296
I00
sVtitle
p6297
V20/02/2016
p6298
sVmedia
p6299
(dp6300
Vexpires
p6301
V2016-03-21T12:04:00Z
p6302
sVavailability
p6303
V29 days left to listen
p6304
sVformat
p6305
Vaudio
p6306
ssVimage
p6307
(dp6308
Vpid
p6309
Vp0247vsb
p6310
ssVavailable_until
p6311
V2016-03-21T12:04:00Z
p6312
sVpid
p6313
Vb0707wbd
p6314
sVis_available_mediaset_pc_sd
p6315
I01
sVshort_synopsis
p6316
VThe latest national and international news from BBC Radio 4.
p6317
sVfirst_broadcast_date
p6318
V2016-02-20T12:00:00Z
p6319
sVownership
p6320
(dp6321
Vservice
p6322
(dp6323
Vtype
p6324
Vradio
p6325
sVid
p6326
Vbbc_radio_four
p6327
sVkey
p6328
Vradio4
p6329
sVtitle
p6330
VBBC Radio 4
p6331
sssVposition
p6332
NsVduration
p6333
I240
sVmedia_type
p6334
Vaudio
p6335
sVactual_start
p6336
V2016-02-20T12:10:01Z
p6337
sVtype
p6338
Vepisode
p6339
sVdisplay_titles
p6340
(dp6341
Vsubtitle
p6342
V20/02/2016
p6343
sVtitle
p6344
VNews Summary
p6345
ssVprogramme
p6346
(dp6347
Vtitle
p6348
VNews Summary
p6349
sVimage
p6350
(dp6351
Vpid
p6352
Vp0247vsb
p6353
ssVexpected_child_count
p6354
NsVpid
p6355
Vb04fc120
p6356
sVfirst_broadcast_date
p6357
V2014-08-11T12:00:00+01:00
p6358
sVownership
p6359
(dp6360
Vservice
p6361
(dp6362
Vtype
p6363
Vradio
p6364
sVid
p6365
Vbbc_radio_four
p6366
sVkey
p6367
Vradio4
p6368
sVtitle
p6369
VBBC Radio 4
p6370
sssVposition
p6371
NsVtype
p6372
Vbrand
p6373
sssa(dp6374
Vis_blanked
p6375
I00
sVend
p6376
V2016-02-20T12:30:00Z
p6377
sVpid
p6378
Vp03j90sm
p6379
sVstart
p6380
V2016-02-20T12:04:00Z
p6381
sVis_repeat
p6382
I00
sVduration
p6383
I1560
sVprogramme
p6384
(dp6385
Vis_legacy_media
p6386
I00
sVtitle
p6387
VThe East-West Energy Divide
p6388
sVmedia
p6389
(dp6390
Vexpires
p6391
NsVavailability
p6392
VAvailable to listen
p6393
sVformat
p6394
Vaudio
p6395
ssVimage
p6396
(dp6397
Vpid
p6398
Vp01p82yl
p6399
ssVpid
p6400
Vb0713m2q
p6401
sVis_available_mediaset_pc_sd
p6402
I01
sVshort_synopsis
p6403
VWhy do gas and electricity cost more in some parts of the UK?
p6404
sVfirst_broadcast_date
p6405
V2016-02-20T12:04:00Z
p6406
sVownership
p6407
(dp6408
Vservice
p6409
(dp6410
Vtype
p6411
Vradio
p6412
sVid
p6413
Vbbc_radio_four
p6414
sVkey
p6415
Vradio4
p6416
sVtitle
p6417
VBBC Radio 4
p6418
sssVposition
p6419
NsVduration
p6420
I1800
sVmedia_type
p6421
Vaudio
p6422
sVactual_start
p6423
V2016-02-20T12:34:28Z
p6424
sVtype
p6425
Vepisode
p6426
sVdisplay_titles
p6427
(dp6428
Vsubtitle
p6429
VThe East-West Energy Divide
p6430
sVtitle
p6431
VMoney Box
p6432
ssVprogramme
p6433
(dp6434
Vtitle
p6435
VMoney Box
p6436
sVimage
p6437
(dp6438
Vpid
p6439
Vp01lcjhf
p6440
ssVexpected_child_count
p6441
NsVpid
p6442
Vb006qjnv
p6443
sVfirst_broadcast_date
p6444
V2007-01-06T12:00:00Z
p6445
sVownership
p6446
(dp6447
Vservice
p6448
(dp6449
Vtype
p6450
Vradio
p6451
sVid
p6452
Vbbc_radio_four
p6453
sVkey
p6454
Vradio4
p6455
sVtitle
p6456
VBBC Radio 4
p6457
sssVposition
p6458
NsVtype
p6459
Vbrand
p6460
sssa(dp6461
Vis_blanked
p6462
I00
sVend
p6463
V2016-02-20T12:57:00Z
p6464
sVpid
p6465
Vp03j90sn
p6466
sVstart
p6467
V2016-02-20T12:30:00Z
p6468
sVis_repeat
p6469
I01
sVduration
p6470
I1620
sVprogramme
p6471
(dp6472
Vis_legacy_media
p6473
I00
sVtitle
p6474
VEpisode 7
p6475
sVmedia
p6476
(dp6477
Vexpires
p6478
V2016-03-21T12:57:00Z
p6479
sVavailability
p6480
V29 days left to listen
p6481
sVformat
p6482
Vaudio
p6483
ssVimage
p6484
(dp6485
Vpid
p6486
Vp036882l
p6487
ssVavailable_until
p6488
V2016-03-21T12:57:00Z
p6489
sVpid
p6490
Vb070hxsn
p6491
sVis_available_mediaset_pc_sd
p6492
I01
sVshort_synopsis
p6493
VA satirical review of the week's news, chaired by Miles Jupp.
p6494
sVfirst_broadcast_date
p6495
V2016-02-19T18:30:00Z
p6496
sVownership
p6497
(dp6498
Vservice
p6499
(dp6500
Vtype
p6501
Vradio
p6502
sVid
p6503
Vbbc_radio_four
p6504
sVkey
p6505
Vradio4
p6506
sVtitle
p6507
VBBC Radio 4
p6508
sssVposition
p6509
I7
sVduration
p6510
I1800
sVmedia_type
p6511
Vaudio
p6512
sVactual_start
p6513
V2016-02-19T19:11:07Z
p6514
sVtype
p6515
Vepisode
p6516
sVdisplay_titles
p6517
(dp6518
Vsubtitle
p6519
VSeries 89, Episode 7
p6520
sVtitle
p6521
VThe News Quiz
p6522
ssVprogramme
p6523
(dp6524
Vtitle
p6525
VSeries 89
p6526
sVimage
p6527
(dp6528
Vpid
p6529
Vp036882l
p6530
ssVexpected_child_count
p6531
I8
sVpid
p6532
Vb06w1860
p6533
sVfirst_broadcast_date
p6534
V2016-01-08T18:30:00Z
p6535
sVposition
p6536
I89
sVtype
p6537
Vseries
p6538
sVprogramme
p6539
(dp6540
Vtitle
p6541
VThe News Quiz
p6542
sVimage
p6543
(dp6544
Vpid
p6545
Vp036882l
p6546
ssVexpected_child_count
p6547
NsVpid
p6548
Vb006r9yq
p6549
sVfirst_broadcast_date
p6550
V2007-01-19T18:30:00Z
p6551
sVownership
p6552
(dp6553
Vservice
p6554
(dp6555
Vtype
p6556
Vradio
p6557
sVid
p6558
Vbbc_radio_four
p6559
sVkey
p6560
Vradio4
p6561
sVtitle
p6562
VBBC Radio 4
p6563
sssVposition
p6564
NsVtype
p6565
Vbrand
p6566
ssssa(dp6567
Vis_blanked
p6568
I00
sVend
p6569
V2016-02-20T13:00:00Z
p6570
sVpid
p6571
Vp03j90sp
p6572
sVstart
p6573
V2016-02-20T12:57:00Z
p6574
sVis_repeat
p6575
I00
sVduration
p6576
I180
sVprogramme
p6577
(dp6578
Vis_legacy_media
p6579
I00
sVtitle
p6580
V20/02/2016
p6581
sVimage
p6582
(dp6583
Vpid
p6584
Vp01lc36f
p6585
ssVpid
p6586
Vb0707wbg
p6587
sVis_available_mediaset_pc_sd
p6588
I00
sVshort_synopsis
p6589
VThe latest weather forecast.
p6590
sVfirst_broadcast_date
p6591
V2016-02-20T12:57:00Z
p6592
sVownership
p6593
(dp6594
Vservice
p6595
(dp6596
Vtype
p6597
Vradio
p6598
sVid
p6599
Vbbc_radio_four
p6600
sVkey
p6601
Vradio4
p6602
sVtitle
p6603
VBBC Radio 4
p6604
sssVposition
p6605
NsVduration
p6606
I120
sVmedia_type
p6607
Vaudio
p6608
sVtype
p6609
Vepisode
p6610
sVdisplay_titles
p6611
(dp6612
Vsubtitle
p6613
V20/02/2016
p6614
sVtitle
p6615
VWeather
p6616
ssVprogramme
p6617
(dp6618
Vtitle
p6619
VWeather
p6620
sVimage
p6621
(dp6622
Vpid
p6623
Vp01lc36f
p6624
ssVexpected_child_count
p6625
NsVpid
p6626
Vb007rn05
p6627
sVfirst_broadcast_date
p6628
V2006-04-05T12:57:00+01:00
p6629
sVownership
p6630
(dp6631
Vservice
p6632
(dp6633
Vtype
p6634
Vradio
p6635
sVid
p6636
Vbbc_radio_four
p6637
sVkey
p6638
Vradio4
p6639
sVtitle
p6640
VBBC Radio 4
p6641
sssVposition
p6642
NsVtype
p6643
Vbrand
p6644
sssa(dp6645
Vis_blanked
p6646
I00
sVend
p6647
V2016-02-20T13:45:00Z
p6648
sVpid
p6649
Vp03k4y2j
p6650
sVstart
p6651
V2016-02-20T13:00:00Z
p6652
sVis_repeat
p6653
I00
sVduration
p6654
I2700
sVprogramme
p6655
(dp6656
Vis_legacy_media
p6657
I00
sVtitle
p6658
V20/02/2016
p6659
sVmedia
p6660
(dp6661
Vexpires
p6662
V2016-03-21T13:45:00Z
p6663
sVavailability
p6664
V29 days left to listen
p6665
sVformat
p6666
Vaudio
p6667
ssVimage
p6668
(dp6669
Vpid
p6670
Vp01lcjyc
p6671
ssVavailable_until
p6672
V2016-03-21T13:45:00Z
p6673
sVpid
p6674
Vb0732184
p6675
sVis_available_mediaset_pc_sd
p6676
I01
sVshort_synopsis
p6677
VRigorous analysis of news and current affairs.
p6678
sVfirst_broadcast_date
p6679
V2016-02-20T13:00:00Z
p6680
sVownership
p6681
(dp6682
Vservice
p6683
(dp6684
Vtype
p6685
Vradio
p6686
sVid
p6687
Vbbc_radio_four
p6688
sVkey
p6689
Vradio4
p6690
sVtitle
p6691
VBBC Radio 4
p6692
sssVposition
p6693
NsVduration
p6694
I2700
sVmedia_type
p6695
Vaudio
p6696
sVactual_start
p6697
V2016-02-20T13:49:36Z
p6698
sVtype
p6699
Vepisode
p6700
sVdisplay_titles
p6701
(dp6702
Vsubtitle
p6703
V20/02/2016
p6704
sVtitle
p6705
VWorld at One
p6706
ssVprogramme
p6707
(dp6708
Vtitle
p6709
VWorld at One
p6710
sVimage
p6711
(dp6712
Vpid
p6713
Vp01lcjyc
p6714
ssVexpected_child_count
p6715
NsVpid
p6716
Vb006qptc
p6717
sVfirst_broadcast_date
p6718
V2007-01-19T13:00:00Z
p6719
sVownership
p6720
(dp6721
Vservice
p6722
(dp6723
Vtype
p6724
Vradio
p6725
sVid
p6726
Vbbc_radio_four
p6727
sVkey
p6728
Vradio4
p6729
sVtitle
p6730
VBBC Radio 4
p6731
sssVposition
p6732
NsVtype
p6733
Vbrand
p6734
sssa(dp6735
Vis_blanked
p6736
I00
sVend
p6737
V2016-02-20T14:30:00Z
p6738
sVpid
p6739
Vp03j90st
p6740
sVstart
p6741
V2016-02-20T13:45:00Z
p6742
sVis_repeat
p6743
I00
sVduration
p6744
I2700
sVprogramme
p6745
(dp6746
Vis_legacy_media
p6747
I00
sVtitle
p6748
VYour Say on the European Referendum Deal.
p6749
sVmedia
p6750
(dp6751
Vexpires
p6752
V2016-03-21T14:30:00Z
p6753
sVavailability
p6754
V29 days left to listen
p6755
sVformat
p6756
Vaudio
p6757
ssVimage
p6758
(dp6759
Vpid
p6760
Vp01hz5vl
p6761
ssVavailable_until
p6762
V2016-03-21T14:30:00Z
p6763
sVpid
p6764
Vb0713m2y
p6765
sVis_available_mediaset_pc_sd
p6766
I01
sVshort_synopsis
p6767
VA special edition of the programme. You have your say on the European referendum.
p6768
sVfirst_broadcast_date
p6769
V2016-02-20T13:45:00Z
p6770
sVownership
p6771
(dp6772
Vservice
p6773
(dp6774
Vtype
p6775
Vradio
p6776
sVid
p6777
Vbbc_radio_four
p6778
sVkey
p6779
Vradio4
p6780
sVtitle
p6781
VBBC Radio 4
p6782
sssVposition
p6783
NsVduration
p6784
I1680
sVmedia_type
p6785
Vaudio
p6786
sVactual_start
p6787
V2016-02-20T14:34:36Z
p6788
sVtype
p6789
Vepisode
p6790
sVdisplay_titles
p6791
(dp6792
Vsubtitle
p6793
VYour Say on the European Referendum Deal.
p6794
sVtitle
p6795
VAny Answers?
p6796
ssVprogramme
p6797
(dp6798
Vtitle
p6799
VAny Answers?
p6800
sVimage
p6801
(dp6802
Vpid
p6803
Vp02gmvyk
p6804
ssVexpected_child_count
p6805
NsVpid
p6806
Vb006qmmy
p6807
sVfirst_broadcast_date
p6808
V2006-04-08T14:00:00+01:00
p6809
sVownership
p6810
(dp6811
Vservice
p6812
(dp6813
Vtype
p6814
Vradio
p6815
sVid
p6816
Vbbc_radio_four
p6817
sVkey
p6818
Vradio4
p6819
sVtitle
p6820
VBBC Radio 4
p6821
sssVposition
p6822
NsVtype
p6823
Vbrand
p6824
sssa(dp6825
Vis_blanked
p6826
I00
sVend
p6827
V2016-02-20T15:30:00Z
p6828
sVpid
p6829
Vp03j90sw
p6830
sVstart
p6831
V2016-02-20T14:30:00Z
p6832
sVis_repeat
p6833
I00
sVduration
p6834
I3600
sVprogramme
p6835
(dp6836
Vis_legacy_media
p6837
I00
sVtitle
p6838
VEpisode 2
p6839
sVmedia
p6840
(dp6841
Vexpires
p6842
V2016-03-21T15:30:00Z
p6843
sVavailability
p6844
V29 days left to listen
p6845
sVformat
p6846
Vaudio
p6847
ssVimage
p6848
(dp6849
Vpid
p6850
Vp01l5z42
p6851
ssVavailable_until
p6852
V2016-03-21T15:30:00Z
p6853
sVpid
p6854
Vb0713m30
p6855
sVis_available_mediaset_pc_sd
p6856
I01
sVshort_synopsis
p6857
VRebus investigates the shooting of three pupils by an ex-SAS soldier at a private school.
p6858
sVfirst_broadcast_date
p6859
V2016-02-20T14:30:00Z
p6860
sVownership
p6861
(dp6862
Vservice
p6863
(dp6864
Vtype
p6865
Vradio
p6866
sVid
p6867
Vbbc_radio_four
p6868
sVkey
p6869
Vradio4
p6870
sVtitle
p6871
VBBC Radio 4
p6872
sssVposition
p6873
I2
sVduration
p6874
I3480
sVmedia_type
p6875
Vaudio
p6876
sVactual_start
p6877
V2016-02-20T15:34:41Z
p6878
sVtype
p6879
Vepisode
p6880
sVdisplay_titles
p6881
(dp6882
Vsubtitle
p6883
VRebus: A Question of Blood, Episode 2
p6884
sVtitle
p6885
VDrama
p6886
ssVprogramme
p6887
(dp6888
Vtitle
p6889
VRebus: A Question of Blood
p6890
sVimage
p6891
(dp6892
Vpid
p6893
Vp01l5z42
p6894
ssVexpected_child_count
p6895
I2
sVpid
p6896
Vb071c73g
p6897
sVfirst_broadcast_date
p6898
V2016-02-13T14:30:00Z
p6899
sVposition
p6900
NsVtype
p6901
Vseries
p6902
sVprogramme
p6903
(dp6904
Vtitle
p6905
VDrama
p6906
sVimage
p6907
(dp6908
Vpid
p6909
Vp01ynb8q
p6910
ssVexpected_child_count
p6911
NsVpid
p6912
Vb04xxp0g
p6913
sVfirst_broadcast_date
p6914
V2014-08-07T14:15:00+01:00
p6915
sVownership
p6916
(dp6917
Vservice
p6918
(dp6919
Vtype
p6920
Vradio
p6921
sVid
p6922
Vbbc_radio_four
p6923
sVkey
p6924
Vradio4
p6925
sVtitle
p6926
VBBC Radio 4
p6927
sssVposition
p6928
NsVtype
p6929
Vbrand
p6930
ssssa(dp6931
Vis_blanked
p6932
I00
sVend
p6933
V2016-02-20T16:00:00Z
p6934
sVpid
p6935
Vp03j90sx
p6936
sVstart
p6937
V2016-02-20T15:30:00Z
p6938
sVis_repeat
p6939
I01
sVduration
p6940
I1800
sVprogramme
p6941
(dp6942
Vis_legacy_media
p6943
I00
sVtitle
p6944
VThe Beat Women
p6945
sVmedia
p6946
(dp6947
Vexpires
p6948
NsVavailability
p6949
VAvailable to listen
p6950
sVformat
p6951
Vaudio
p6952
ssVimage
p6953
(dp6954
Vpid
p6955
Vp02vt2kc
p6956
ssVpid
p6957
Vb06084ks
p6958
sVis_available_mediaset_pc_sd
p6959
I01
sVshort_synopsis
p6960
VLaura Barton travels to New York to meet the women of the Beat Generation.
p6961
sVfirst_broadcast_date
p6962
V2015-06-29T16:00:00+01:00
p6963
sVownership
p6964
(dp6965
Vservice
p6966
(dp6967
Vtype
p6968
Vradio
p6969
sVid
p6970
Vbbc_radio_four
p6971
sVkey
p6972
Vradio4
p6973
sVtitle
p6974
VBBC Radio 4
p6975
sssVposition
p6976
NsVduration
p6977
I1680
sVmedia_type
p6978
Vaudio
p6979
sVtype
p6980
Vepisode
p6981
sVdisplay_titles
p6982
(dp6983
Vsubtitle
p6984
g1342
sVtitle
p6985
VThe Beat Women
p6986
ssVactual_start
p6987
V2015-06-29T16:31:26+01:00
p6988
ssa(dp6989
Vis_blanked
p6990
I00
sVend
p6991
V2016-02-20T17:00:00Z
p6992
sVpid
p6993
Vp03j90sz
p6994
sVstart
p6995
V2016-02-20T16:00:00Z
p6996
sVis_repeat
p6997
I00
sVduration
p6998
I3600
sVprogramme
p6999
(dp7000
Vis_legacy_media
p7001
I00
sVtitle
p7002
VWeekend Woman's Hour: Julianne Moore, Author KM Peyton, Musician and designer Beth Ditto
p7003
sVmedia
p7004
(dp7005
Vexpires
p7006
NsVavailability
p7007
VAvailable to listen
p7008
sVformat
p7009
Vaudio
p7010
ssVimage
p7011
(dp7012
Vpid
p7013
Vp03jc4w0
p7014
ssVpid
p7015
Vb0713m32
p7016
sVis_available_mediaset_pc_sd
p7017
I01
sVshort_synopsis
p7018
VThe actor Julianne Moore talks about her latest film Freeheld.
p7019
sVfirst_broadcast_date
p7020
V2016-02-20T16:00:00Z
p7021
sVownership
p7022
(dp7023
Vservice
p7024
(dp7025
Vtype
p7026
Vradio
p7027
sVid
p7028
Vbbc_radio_four
p7029
sVkey
p7030
Vradio4
p7031
sVtitle
p7032
VBBC Radio 4
p7033
sssVposition
p7034
NsVduration
p7035
I3480
sVmedia_type
p7036
Vaudio
p7037
sVactual_start
p7038
V2016-02-20T17:00:00Z
p7039
sVtype
p7040
Vepisode
p7041
sVdisplay_titles
p7042
(dp7043
Vsubtitle
p7044
VWeekend Woman's Hour: Julianne Moore, Author KM Peyton, Musician and designer Beth Ditto
p7045
sVtitle
p7046
VWoman's Hour
p7047
ssVprogramme
p7048
(dp7049
Vtitle
p7050
VWoman's Hour
p7051
sVimage
p7052
(dp7053
Vpid
p7054
Vp01svhcp
p7055
ssVexpected_child_count
p7056
NsVpid
p7057
Vb007qlvb
p7058
sVfirst_broadcast_date
p7059
V1948-02-02T14:00:00Z
p7060
sVownership
p7061
(dp7062
Vservice
p7063
(dp7064
Vtype
p7065
Vradio
p7066
sVid
p7067
Vbbc_radio_four
p7068
sVkey
p7069
Vradio4
p7070
sVtitle
p7071
VBBC Radio 4
p7072
sssVposition
p7073
NsVtype
p7074
Vbrand
p7075
sssa(dp7076
Vis_blanked
p7077
I00
sVend
p7078
V2016-02-20T17:30:00Z
p7079
sVpid
p7080
Vp03j90t1
p7081
sVstart
p7082
V2016-02-20T17:00:00Z
p7083
sVis_repeat
p7084
I00
sVduration
p7085
I1800
sVprogramme
p7086
(dp7087
Vis_legacy_media
p7088
I00
sVtitle
p7089
VSaturday PM
p7090
sVmedia
p7091
(dp7092
Vexpires
p7093
V2016-03-21T17:30:00Z
p7094
sVavailability
p7095
V29 days left to listen
p7096
sVformat
p7097
Vaudio
p7098
ssVimage
p7099
(dp7100
Vpid
p7101
Vp02w4hl3
p7102
ssVavailable_until
p7103
V2016-03-21T17:30:00Z
p7104
sVpid
p7105
Vb0713m34
p7106
sVis_available_mediaset_pc_sd
p7107
I01
sVshort_synopsis
p7108
VFull coverage of the day's news.
p7109
sVfirst_broadcast_date
p7110
V2016-02-20T17:00:00Z
p7111
sVownership
p7112
(dp7113
Vservice
p7114
(dp7115
Vtype
p7116
Vradio
p7117
sVid
p7118
Vbbc_radio_four
p7119
sVkey
p7120
Vradio4
p7121
sVtitle
p7122
VBBC Radio 4
p7123
sssVposition
p7124
NsVduration
p7125
I1800
sVmedia_type
p7126
Vaudio
p7127
sVactual_start
p7128
V2016-02-20T17:34:22Z
p7129
sVtype
p7130
Vepisode
p7131
sVdisplay_titles
p7132
(dp7133
Vsubtitle
p7134
VSaturday PM
p7135
sVtitle
p7136
VPM
p7137
ssVprogramme
p7138
(dp7139
Vtitle
p7140
VPM
p7141
sVimage
p7142
(dp7143
Vpid
p7144
Vp02w4hl3
p7145
ssVexpected_child_count
p7146
NsVpid
p7147
Vb006qskw
p7148
sVfirst_broadcast_date
p7149
V2007-01-19T17:00:00Z
p7150
sVownership
p7151
(dp7152
Vservice
p7153
(dp7154
Vtype
p7155
Vradio
p7156
sVid
p7157
Vbbc_radio_four
p7158
sVkey
p7159
Vradio4
p7160
sVtitle
p7161
VBBC Radio 4
p7162
sssVposition
p7163
NsVtype
p7164
Vbrand
p7165
sssa(dp7166
Vis_blanked
p7167
I00
sVend
p7168
V2016-02-20T17:54:00Z
p7169
sVpid
p7170
Vp03j90t2
p7171
sVstart
p7172
V2016-02-20T17:30:00Z
p7173
sVis_repeat
p7174
I01
sVduration
p7175
I1440
sVprogramme
p7176
(dp7177
Vis_legacy_media
p7178
I00
sVtitle
p7179
VData Privacy
p7180
sVmedia
p7181
(dp7182
Vexpires
p7183
NsVavailability
p7184
VAvailable to listen
p7185
sVformat
p7186
Vaudio
p7187
ssVimage
p7188
(dp7189
Vpid
p7190
Vp02scq3r
p7191
ssVpid
p7192
Vb070hns6
p7193
sVis_available_mediaset_pc_sd
p7194
I01
sVshort_synopsis
p7195
VHow do businesses use customers' personal data to make money?
p7196
sVfirst_broadcast_date
p7197
V2016-02-18T20:30:00Z
p7198
sVownership
p7199
(dp7200
Vservice
p7201
(dp7202
Vtype
p7203
Vradio
p7204
sVid
p7205
Vbbc_radio_four
p7206
sVkey
p7207
Vradio4
p7208
sVtitle
p7209
VBBC Radio 4
p7210
sssVposition
p7211
NsVduration
p7212
I1800
sVmedia_type
p7213
Vaudio
p7214
sVactual_start
p7215
V2016-02-18T21:00:00Z
p7216
sVtype
p7217
Vepisode
p7218
sVdisplay_titles
p7219
(dp7220
Vsubtitle
p7221
VData Privacy
p7222
sVtitle
p7223
VThe Bottom Line
p7224
ssVprogramme
p7225
(dp7226
Vtitle
p7227
VThe Bottom Line
p7228
sVimage
p7229
(dp7230
Vpid
p7231
Vp02scq3r
p7232
ssVexpected_child_count
p7233
NsVpid
p7234
Vb006sz6t
p7235
sVfirst_broadcast_date
p7236
V2007-02-03T17:30:00Z
p7237
sVownership
p7238
(dp7239
Vservice
p7240
(dp7241
Vtype
p7242
Vradio
p7243
sVid
p7244
Vbbc_radio_four
p7245
sVkey
p7246
Vradio4
p7247
sVtitle
p7248
VBBC Radio 4
p7249
sssVposition
p7250
NsVtype
p7251
Vbrand
p7252
sssa(dp7253
Vis_blanked
p7254
I00
sVend
p7255
V2016-02-20T17:57:00Z
p7256
sVpid
p7257
Vp03j90t3
p7258
sVstart
p7259
V2016-02-20T17:54:00Z
p7260
sVis_repeat
p7261
I00
sVduration
p7262
I180
sVprogramme
p7263
(dp7264
Vis_legacy_media
p7265
I00
sVtitle
p7266
V20/02/2016
p7267
sVmedia
p7268
(dp7269
Vexpires
p7270
V2016-03-21T17:57:00Z
p7271
sVavailability
p7272
V29 days left to listen
p7273
sVformat
p7274
Vaudio
p7275
ssVimage
p7276
(dp7277
Vpid
p7278
Vp0368m65
p7279
ssVavailable_until
p7280
V2016-03-21T17:57:00Z
p7281
sVpid
p7282
Vb0707wbl
p7283
sVis_available_mediaset_pc_sd
p7284
I01
sVshort_synopsis
p7285
VThe latest shipping forecast.
p7286
sVfirst_broadcast_date
p7287
V2016-02-20T17:54:00Z
p7288
sVownership
p7289
(dp7290
Vservice
p7291
(dp7292
Vtype
p7293
Vradio
p7294
sVid
p7295
Vbbc_radio_four
p7296
sVkey
p7297
Vradio4
p7298
sVtitle
p7299
VBBC Radio 4
p7300
sssVposition
p7301
NsVduration
p7302
I180
sVmedia_type
p7303
Vaudio
p7304
sVactual_start
p7305
V2016-02-20T18:01:03Z
p7306
sVtype
p7307
Vepisode
p7308
sVdisplay_titles
p7309
(dp7310
Vsubtitle
p7311
V20/02/2016
p7312
sVtitle
p7313
VShipping Forecast
p7314
ssVprogramme
p7315
(dp7316
Vtitle
p7317
VShipping Forecast
p7318
sVimage
p7319
(dp7320
Vpid
p7321
Vp0368m65
p7322
ssVexpected_child_count
p7323
NsVpid
p7324
Vb006qfvv
p7325
sVfirst_broadcast_date
p7326
V2006-04-05T00:48:00+01:00
p7327
sVownership
p7328
(dp7329
Vservice
p7330
(dp7331
Vtype
p7332
Vradio
p7333
sVid
p7334
Vbbc_radio_four
p7335
sVkey
p7336
Vradio4
p7337
sVtitle
p7338
VBBC Radio 4
p7339
sssVposition
p7340
NsVtype
p7341
Vbrand
p7342
sssa(dp7343
Vis_blanked
p7344
I00
sVend
p7345
V2016-02-20T18:00:00Z
p7346
sVpid
p7347
Vp03j90t4
p7348
sVstart
p7349
V2016-02-20T17:57:00Z
p7350
sVis_repeat
p7351
I00
sVduration
p7352
I180
sVprogramme
p7353
(dp7354
Vis_legacy_media
p7355
I00
sVtitle
p7356
V20/02/2016
p7357
sVimage
p7358
(dp7359
Vpid
p7360
Vp01lc36f
p7361
ssVpid
p7362
Vb0707wbn
p7363
sVis_available_mediaset_pc_sd
p7364
I00
sVshort_synopsis
p7365
VThe latest weather forecast.
p7366
sVfirst_broadcast_date
p7367
V2016-02-20T17:57:00Z
p7368
sVownership
p7369
(dp7370
Vservice
p7371
(dp7372
Vtype
p7373
Vradio
p7374
sVid
p7375
Vbbc_radio_four
p7376
sVkey
p7377
Vradio4
p7378
sVtitle
p7379
VBBC Radio 4
p7380
sssVposition
p7381
NsVduration
p7382
I120
sVmedia_type
p7383
Vaudio
p7384
sVtype
p7385
Vepisode
p7386
sVdisplay_titles
p7387
(dp7388
Vsubtitle
p7389
V20/02/2016
p7390
sVtitle
p7391
VWeather
p7392
ssVprogramme
p7393
(dp7394
Vtitle
p7395
VWeather
p7396
sVimage
p7397
(dp7398
Vpid
p7399
Vp01lc36f
p7400
ssVexpected_child_count
p7401
NsVpid
p7402
Vb007rn05
p7403
sVfirst_broadcast_date
p7404
V2006-04-05T12:57:00+01:00
p7405
sVownership
p7406
(dp7407
Vservice
p7408
(dp7409
Vtype
p7410
Vradio
p7411
sVid
p7412
Vbbc_radio_four
p7413
sVkey
p7414
Vradio4
p7415
sVtitle
p7416
VBBC Radio 4
p7417
sssVposition
p7418
NsVtype
p7419
Vbrand
p7420
sssa(dp7421
Vis_blanked
p7422
I00
sVend
p7423
V2016-02-20T18:30:00Z
p7424
sVpid
p7425
Vp03j90t5
p7426
sVstart
p7427
V2016-02-20T18:00:00Z
p7428
sVis_repeat
p7429
I00
sVduration
p7430
I1800
sVprogramme
p7431
(dp7432
Vis_legacy_media
p7433
I00
sVtitle
p7434
V20/02/2016 Cameron sets date for EU referendum
p7435
sVmedia
p7436
(dp7437
Vexpires
p7438
NsVavailability
p7439
VAvailable to listen
p7440
sVformat
p7441
Vaudio
p7442
ssVimage
p7443
(dp7444
Vpid
p7445
Vp02mbk84
p7446
ssVpid
p7447
Vb0707wbq
p7448
sVis_available_mediaset_pc_sd
p7449
I01
sVshort_synopsis
p7450
VIn-out vote to be held on June 23rd, several cabinet ministers to campaign to leave EU.
p7451
sVfirst_broadcast_date
p7452
V2016-02-20T18:00:00Z
p7453
sVownership
p7454
(dp7455
Vservice
p7456
(dp7457
Vtype
p7458
Vradio
p7459
sVid
p7460
Vbbc_radio_four
p7461
sVkey
p7462
Vradio4
p7463
sVtitle
p7464
VBBC Radio 4
p7465
sssVposition
p7466
NsVduration
p7467
I1800
sVmedia_type
p7468
Vaudio
p7469
sVactual_start
p7470
V2016-02-20T18:34:27Z
p7471
sVtype
p7472
Vepisode
p7473
sVdisplay_titles
p7474
(dp7475
Vsubtitle
p7476
V20/02/2016 Cameron sets date for EU referendum
p7477
sVtitle
p7478
VSix O'Clock News
p7479
ssVprogramme
p7480
(dp7481
Vtitle
p7482
VSix O'Clock News
p7483
sVimage
p7484
(dp7485
Vpid
p7486
Vp02mbk84
p7487
ssVexpected_child_count
p7488
NsVpid
p7489
Vb006qjxt
p7490
sVfirst_broadcast_date
p7491
V2007-01-06T18:00:00Z
p7492
sVownership
p7493
(dp7494
Vservice
p7495
(dp7496
Vtype
p7497
Vradio
p7498
sVid
p7499
Vbbc_radio_four
p7500
sVkey
p7501
Vradio4
p7502
sVtitle
p7503
VBBC Radio 4
p7504
sssVposition
p7505
NsVtype
p7506
Vbrand
p7507
sssa(dp7508
Vis_blanked
p7509
I00
sVend
p7510
V2016-02-20T19:00:00Z
p7511
sVpid
p7512
Vp03j90t6
p7513
sVstart
p7514
V2016-02-20T18:30:00Z
p7515
sVis_repeat
p7516
I00
sVduration
p7517
I1800
sVprogramme
p7518
(dp7519
Vis_legacy_media
p7520
I00
sVtitle
p7521
VClive Anderson, Phil Gayle, David Leon, Ian Hislop, Jenny Sealey, Ioan Grillo, Badly Drawn Boy, Yorkston Thorne Khan
p7522
sVmedia
p7523
(dp7524
Vexpires
p7525
V2016-03-21T19:00:00Z
p7526
sVavailability
p7527
V29 days left to listen
p7528
sVformat
p7529
Vaudio
p7530
ssVimage
p7531
(dp7532
Vpid
p7533
Vp03k32g0
p7534
ssVavailable_until
p7535
V2016-03-21T19:00:00Z
p7536
sVpid
p7537
Vb0713m36
p7538
sVis_available_mediaset_pc_sd
p7539
I01
sVshort_synopsis
p7540
VClive Anderson and guests with an eclectic mix of conversation, music and comedy.
p7541
sVfirst_broadcast_date
p7542
V2016-02-20T18:30:00Z
p7543
sVownership
p7544
(dp7545
Vservice
p7546
(dp7547
Vtype
p7548
Vradio
p7549
sVid
p7550
Vbbc_radio_four
p7551
sVkey
p7552
Vradio4
p7553
sVtitle
p7554
VBBC Radio 4
p7555
sssVposition
p7556
NsVduration
p7557
I2700
sVmedia_type
p7558
Vaudio
p7559
sVactual_start
p7560
V2016-02-20T19:04:28Z
p7561
sVtype
p7562
Vepisode
p7563
sVdisplay_titles
p7564
(dp7565
Vsubtitle
p7566
VClive Anderson, Phil Gayle, David Leon, Ian Hislop, Jenny Sealey, Ioan Grillo, Badly Drawn Boy, Yorkston Thorne Khan
p7567
sVtitle
p7568
VLoose Ends
p7569
ssVprogramme
p7570
(dp7571
Vtitle
p7572
VLoose Ends
p7573
sVimage
p7574
(dp7575
Vpid
p7576
Vp01lc21y
p7577
ssVexpected_child_count
p7578
NsVpid
p7579
Vb006qjym
p7580
sVfirst_broadcast_date
p7581
V2004-06-05T18:10:00+01:00
p7582
sVownership
p7583
(dp7584
Vservice
p7585
(dp7586
Vtype
p7587
Vradio
p7588
sVid
p7589
Vbbc_radio_four
p7590
sVkey
p7591
Vradio4
p7592
sVtitle
p7593
VBBC Radio 4
p7594
sssVposition
p7595
NsVtype
p7596
Vbrand
p7597
sssa(dp7598
Vis_blanked
p7599
I00
sVend
p7600
V2016-02-20T19:15:00Z
p7601
sVpid
p7602
Vp03j90t7
p7603
sVstart
p7604
V2016-02-20T19:00:00Z
p7605
sVis_repeat
p7606
I00
sVduration
p7607
I900
sVprogramme
p7608
(dp7609
Vis_legacy_media
p7610
I00
sVtitle
p7611
VPopping Out
p7612
sVmedia
p7613
(dp7614
Vexpires
p7615
V2016-03-22T17:54:00Z
p7616
sVavailability
p7617
V1 month left to listen
p7618
sVformat
p7619
Vaudio
p7620
ssVimage
p7621
(dp7622
Vpid
p7623
Vp01lcmjm
p7624
ssVavailable_until
p7625
V2016-03-22T17:54:00Z
p7626
sVpid
p7627
Vb0713m38
p7628
sVis_available_mediaset_pc_sd
p7629
I01
sVshort_synopsis
p7630
VFollowing the EU summit, novelist Will Self responds to the UK's pitch for better terms.
p7631
sVfirst_broadcast_date
p7632
V2016-02-20T19:00:00Z
p7633
sVownership
p7634
(dp7635
Vservice
p7636
(dp7637
Vtype
p7638
Vradio
p7639
sVid
p7640
Vbbc_radio_four
p7641
sVkey
p7642
Vradio4
p7643
sVtitle
p7644
VBBC Radio 4
p7645
sssVposition
p7646
NsVduration
p7647
I780
sVmedia_type
p7648
Vaudio
p7649
sVactual_start
p7650
V2016-02-20T19:19:52Z
p7651
sVtype
p7652
Vepisode
p7653
sVdisplay_titles
p7654
(dp7655
Vsubtitle
p7656
VSeries 19, Popping Out
p7657
sVtitle
p7658
VFrom Fact to Fiction
p7659
ssVprogramme
p7660
(dp7661
Vtitle
p7662
VSeries 19
p7663
sVimage
p7664
(dp7665
Vpid
p7666
Vp01lcmjm
p7667
ssVexpected_child_count
p7668
I8
sVpid
p7669
Vb06w4g1h
p7670
sVfirst_broadcast_date
p7671
V2016-01-09T19:00:00Z
p7672
sVposition
p7673
I19
sVtype
p7674
Vseries
p7675
sVprogramme
p7676
(dp7677
Vtitle
p7678
VFrom Fact to Fiction
p7679
sVimage
p7680
(dp7681
Vpid
p7682
Vp01lcmjm
p7683
ssVexpected_child_count
p7684
NsVpid
p7685
Vb007lld4
p7686
sVfirst_broadcast_date
p7687
V2007-05-19T19:00:00+01:00
p7688
sVownership
p7689
(dp7690
Vservice
p7691
(dp7692
Vtype
p7693
Vradio
p7694
sVid
p7695
Vbbc_radio_four
p7696
sVkey
p7697
Vradio4
p7698
sVtitle
p7699
VBBC Radio 4
p7700
sssVposition
p7701
NsVtype
p7702
Vbrand
p7703
ssssa(dp7704
Vis_blanked
p7705
I00
sVend
p7706
V2016-02-20T20:00:00Z
p7707
sVpid
p7708
Vp03j90t9
p7709
sVstart
p7710
V2016-02-20T19:15:00Z
p7711
sVis_repeat
p7712
I00
sVduration
p7713
I2700
sVprogramme
p7714
(dp7715
Vis_legacy_media
p7716
I00
sVtitle
p7717
VUncle Vanya, Triple 9, The Night Manager, Mend the Living, Delacroix
p7718
sVmedia
p7719
(dp7720
Vexpires
p7721
NsVavailability
p7722
VAvailable to listen
p7723
sVformat
p7724
Vaudio
p7725
ssVimage
p7726
(dp7727
Vpid
p7728
Vp03jyf3x
p7729
ssVpid
p7730
Vb0707wbs
p7731
sVis_available_mediaset_pc_sd
p7732
I01
sVshort_synopsis
p7733
VIncluding a look at Uncle Vanya at London's Almeida Theatre and heist movie Triple 9.
p7734
sVfirst_broadcast_date
p7735
V2016-02-20T19:15:00Z
p7736
sVownership
p7737
(dp7738
Vservice
p7739
(dp7740
Vtype
p7741
Vradio
p7742
sVid
p7743
Vbbc_radio_four
p7744
sVkey
p7745
Vradio4
p7746
sVtitle
p7747
VBBC Radio 4
p7748
sssVposition
p7749
NsVduration
p7750
I2700
sVmedia_type
p7751
Vaudio
p7752
sVactual_start
p7753
V2016-02-20T19:59:00Z
p7754
sVtype
p7755
Vepisode
p7756
sVdisplay_titles
p7757
(dp7758
Vsubtitle
p7759
VUncle Vanya, Triple 9, The Night Manager, Mend the Living, Delacroix
p7760
sVtitle
p7761
VSaturday Review
p7762
ssVprogramme
p7763
(dp7764
Vtitle
p7765
VSaturday Review
p7766
sVimage
p7767
(dp7768
Vpid
p7769
Vp01w0sp4
p7770
ssVexpected_child_count
p7771
NsVpid
p7772
Vb006qh6g
p7773
sVfirst_broadcast_date
p7774
V2007-01-06T19:15:00Z
p7775
sVownership
p7776
(dp7777
Vservice
p7778
(dp7779
Vtype
p7780
Vradio
p7781
sVid
p7782
Vbbc_radio_four
p7783
sVkey
p7784
Vradio4
p7785
sVtitle
p7786
VBBC Radio 4
p7787
sssVposition
p7788
NsVtype
p7789
Vbrand
p7790
sssa(dp7791
Vis_blanked
p7792
I00
sVend
p7793
V2016-02-20T21:00:00Z
p7794
sVpid
p7795
Vp03j90tc
p7796
sVstart
p7797
V2016-02-20T20:00:00Z
p7798
sVis_repeat
p7799
I00
sVduration
p7800
I3600
sVprogramme
p7801
(dp7802
Vis_legacy_media
p7803
I00
sVtitle
p7804
VIn the Bluff
p7805
sVmedia
p7806
(dp7807
Vexpires
p7808
NsVavailability
p7809
VAvailable to listen
p7810
sVformat
p7811
Vaudio
p7812
ssVimage
p7813
(dp7814
Vpid
p7815
Vp01wjkj3
p7816
ssVpid
p7817
Vb0713m3h
p7818
sVis_available_mediaset_pc_sd
p7819
I01
sVshort_synopsis
p7820
VPoet Paul Farley shows his hand in a celebration of bluffing, from poker to geo-politics.
p7821
sVfirst_broadcast_date
p7822
V2016-02-20T20:00:00Z
p7823
sVownership
p7824
(dp7825
Vservice
p7826
(dp7827
Vtype
p7828
Vradio
p7829
sVid
p7830
Vbbc_radio_four
p7831
sVkey
p7832
Vradio4
p7833
sVtitle
p7834
VBBC Radio 4
p7835
sssVposition
p7836
NsVduration
p7837
I3480
sVmedia_type
p7838
Vaudio
p7839
sVactual_start
p7840
V2016-02-20T21:05:30Z
p7841
sVtype
p7842
Vepisode
p7843
sVdisplay_titles
p7844
(dp7845
Vsubtitle
p7846
VIn the Bluff
p7847
sVtitle
p7848
VArchive on 4
p7849
ssVprogramme
p7850
(dp7851
Vtitle
p7852
VArchive on 4
p7853
sVimage
p7854
(dp7855
Vpid
p7856
Vp02r51rp
p7857
ssVexpected_child_count
p7858
NsVpid
p7859
Vb00hg8dq
p7860
sVfirst_broadcast_date
p7861
V2007-05-26T20:00:00+01:00
p7862
sVownership
p7863
(dp7864
Vservice
p7865
(dp7866
Vtype
p7867
Vradio
p7868
sVid
p7869
Vbbc_radio_four
p7870
sVkey
p7871
Vradio4
p7872
sVtitle
p7873
VBBC Radio 4
p7874
sssVposition
p7875
NsVtype
p7876
Vbrand
p7877
sssa(dp7878
Vis_blanked
p7879
I00
sVend
p7880
V2016-02-20T22:00:00Z
p7881
sVpid
p7882
Vp03j90td
p7883
sVstart
p7884
V2016-02-20T21:00:00Z
p7885
sVis_repeat
p7886
I01
sVduration
p7887
I3600
sVprogramme
p7888
(dp7889
Vis_legacy_media
p7890
I00
sVtitle
p7891
VThe Testament of This Day
p7892
sVmedia
p7893
(dp7894
Vexpires
p7895
V2016-03-21T22:00:00Z
p7896
sVavailability
p7897
V30 days left to listen
p7898
sVformat
p7899
Vaudio
p7900
ssVimage
p7901
(dp7902
Vpid
p7903
Vp01x82p6
p7904
ssVavailable_until
p7905
V2016-03-21T22:00:00Z
p7906
sVpid
p7907
Vb040yvdq
p7908
sVis_available_mediaset_pc_sd
p7909
I01
sVshort_synopsis
p7910
VBy Edward Bond. A young man embarks on two journeys. He is in control of only one.
p7911
sVfirst_broadcast_date
p7912
V2014-04-18T21:00:00+01:00
p7913
sVownership
p7914
(dp7915
Vservice
p7916
(dp7917
Vtype
p7918
Vradio
p7919
sVid
p7920
Vbbc_radio_four
p7921
sVkey
p7922
Vradio4
p7923
sVtitle
p7924
VBBC Radio 4
p7925
sssVposition
p7926
NsVduration
p7927
I3480
sVmedia_type
p7928
Vaudio
p7929
sVactual_start
p7930
V2016-02-20T22:06:53Z
p7931
sVtype
p7932
Vepisode
p7933
sVdisplay_titles
p7934
(dp7935
Vsubtitle
p7936
VThe Testament of This Day
p7937
sVtitle
p7938
VFriday Drama
p7939
ssVprogramme
p7940
(dp7941
Vtitle
p7942
VFriday Drama
p7943
sVimage
p7944
(dp7945
Vpid
p7946
Vp01lcj6y
p7947
ssVexpected_child_count
p7948
NsVpid
p7949
Vb006r5p8
p7950
sVfirst_broadcast_date
p7951
V2006-04-14T21:00:00+01:00
p7952
sVownership
p7953
(dp7954
Vservice
p7955
(dp7956
Vtype
p7957
Vradio
p7958
sVid
p7959
Vbbc_radio_four
p7960
sVkey
p7961
Vradio4
p7962
sVtitle
p7963
VBBC Radio 4
p7964
sssVposition
p7965
NsVtype
p7966
Vbrand
p7967
sssa(dp7968
Vis_blanked
p7969
I00
sVend
p7970
V2016-02-20T22:15:00Z
p7971
sVpid
p7972
Vp03j90tf
p7973
sVstart
p7974
V2016-02-20T22:00:00Z
p7975
sVis_repeat
p7976
I00
sVduration
p7977
I900
sVprogramme
p7978
(dp7979
Vis_legacy_media
p7980
I00
sVtitle
p7981
V20/02/2016
p7982
sVmedia
p7983
(dp7984
Vexpires
p7985
V2016-03-21T22:15:00Z
p7986
sVavailability
p7987
V30 days left to listen
p7988
sVformat
p7989
Vaudio
p7990
ssVimage
p7991
(dp7992
Vpid
p7993
Vp01lc34z
p7994
ssVavailable_until
p7995
V2016-03-21T22:15:00Z
p7996
sVpid
p7997
Vb0707wbv
p7998
sVis_available_mediaset_pc_sd
p7999
I01
sVshort_synopsis
p8000
VThe latest national and international news from BBC Radio 4.
p8001
sVfirst_broadcast_date
p8002
V2016-02-20T22:00:00Z
p8003
sVownership
p8004
(dp8005
Vservice
p8006
(dp8007
Vtype
p8008
Vradio
p8009
sVid
p8010
Vbbc_radio_four
p8011
sVkey
p8012
Vradio4
p8013
sVtitle
p8014
VBBC Radio 4
p8015
sssVposition
p8016
NsVduration
p8017
I900
sVmedia_type
p8018
Vaudio
p8019
sVactual_start
p8020
V2016-02-20T22:19:18Z
p8021
sVtype
p8022
Vepisode
p8023
sVdisplay_titles
p8024
(dp8025
Vsubtitle
p8026
V20/02/2016
p8027
sVtitle
p8028
VNews and Weather
p8029
ssVprogramme
p8030
(dp8031
Vtitle
p8032
VNews and Weather
p8033
sVimage
p8034
(dp8035
Vpid
p8036
Vp01lc34z
p8037
ssVexpected_child_count
p8038
NsVpid
p8039
Vb007hhtk
p8040
sVfirst_broadcast_date
p8041
V2007-02-03T22:00:00Z
p8042
sVownership
p8043
(dp8044
Vservice
p8045
(dp8046
Vtype
p8047
Vradio
p8048
sVid
p8049
Vbbc_radio_four
p8050
sVkey
p8051
Vradio4
p8052
sVtitle
p8053
VBBC Radio 4
p8054
sssVposition
p8055
NsVtype
p8056
Vbrand
p8057
sssa(dp8058
Vis_blanked
p8059
I00
sVend
p8060
V2016-02-20T23:00:00Z
p8061
sVpid
p8062
Vp03j90th
p8063
sVstart
p8064
V2016-02-20T22:15:00Z
p8065
sVis_repeat
p8066
I01
sVduration
p8067
I2700
sVprogramme
p8068
(dp8069
Vis_legacy_media
p8070
I00
sVtitle
p8071
VBanning Boycotts
p8072
sVmedia
p8073
(dp8074
Vexpires
p8075
NsVavailability
p8076
VAvailable to listen
p8077
sVformat
p8078
Vaudio
p8079
ssVimage
p8080
(dp8081
Vpid
p8082
Vp01lcrrw
p8083
ssVpid
p8084
Vb070fn1y
p8085
sVis_available_mediaset_pc_sd
p8086
I01
sVshort_synopsis
p8087
VCombative, provocative and engaging debate chaired by Michael Buerk.
p8088
sVfirst_broadcast_date
p8089
V2016-02-17T20:00:00Z
p8090
sVownership
p8091
(dp8092
Vservice
p8093
(dp8094
Vtype
p8095
Vradio
p8096
sVid
p8097
Vbbc_radio_four
p8098
sVkey
p8099
Vradio4
p8100
sVtitle
p8101
VBBC Radio 4
p8102
sssVposition
p8103
NsVduration
p8104
I2580
sVmedia_type
p8105
Vaudio
p8106
sVactual_start
p8107
V2016-02-17T20:49:47Z
p8108
sVtype
p8109
Vepisode
p8110
sVdisplay_titles
p8111
(dp8112
Vsubtitle
p8113
VBanning Boycotts
p8114
sVtitle
p8115
VMoral Maze
p8116
ssVprogramme
p8117
(dp8118
Vtitle
p8119
VMoral Maze
p8120
sVimage
p8121
(dp8122
Vpid
p8123
Vp01lcrrw
p8124
ssVexpected_child_count
p8125
NsVpid
p8126
Vb006qk11
p8127
sVfirst_broadcast_date
p8128
V2007-01-31T20:00:00Z
p8129
sVownership
p8130
(dp8131
Vservice
p8132
(dp8133
Vtype
p8134
Vradio
p8135
sVid
p8136
Vbbc_radio_four
p8137
sVkey
p8138
Vradio4
p8139
sVtitle
p8140
VBBC Radio 4
p8141
sssVposition
p8142
NsVtype
p8143
Vbrand
p8144
sssa(dp8145
Vis_blanked
p8146
I00
sVend
p8147
V2016-02-20T23:30:00Z
p8148
sVpid
p8149
Vp03j90tj
p8150
sVstart
p8151
V2016-02-20T23:00:00Z
p8152
sVis_repeat
p8153
I01
sVduration
p8154
I1800
sVprogramme
p8155
(dp8156
Vis_legacy_media
p8157
I00
sVtitle
p8158
VHeat 6, 2016
p8159
sVmedia
p8160
(dp8161
Vexpires
p8162
V2016-03-21T23:30:00Z
p8163
sVavailability
p8164
V30 days left to listen
p8165
sVformat
p8166
Vaudio
p8167
ssVimage
p8168
(dp8169
Vpid
p8170
Vp01lcmpj
p8171
ssVavailable_until
p8172
V2016-03-21T23:30:00Z
p8173
sVpid
p8174
Vb070cxy8
p8175
sVis_available_mediaset_pc_sd
p8176
I01
sVshort_synopsis
p8177
VRussell Davies chairs the prestigious general knowledge quiz.
p8178
sVfirst_broadcast_date
p8179
V2016-02-15T15:00:00Z
p8180
sVownership
p8181
(dp8182
Vservice
p8183
(dp8184
Vtype
p8185
Vradio
p8186
sVid
p8187
Vbbc_radio_four
p8188
sVkey
p8189
Vradio4
p8190
sVtitle
p8191
VBBC Radio 4
p8192
sssVposition
p8193
NsVduration
p8194
I1680
sVmedia_type
p8195
Vaudio
p8196
sVactual_start
p8197
V2016-02-15T15:33:58Z
p8198
sVtype
p8199
Vepisode
p8200
sVdisplay_titles
p8201
(dp8202
Vsubtitle
p8203
VHeat 6, 2016
p8204
sVtitle
p8205
VBrain of Britain
p8206
ssVprogramme
p8207
(dp8208
Vtitle
p8209
VBrain of Britain
p8210
sVimage
p8211
(dp8212
Vpid
p8213
Vp01lcmpj
p8214
ssVexpected_child_count
p8215
NsVpid
p8216
Vb00813s0
p8217
sVfirst_broadcast_date
p8218
V2007-09-10T13:30:00+01:00
p8219
sVownership
p8220
(dp8221
Vservice
p8222
(dp8223
Vtype
p8224
Vradio
p8225
sVid
p8226
Vbbc_radio_four
p8227
sVkey
p8228
Vradio4
p8229
sVtitle
p8230
VBBC Radio 4
p8231
sssVposition
p8232
NsVtype
p8233
Vbrand
p8234
sssa(dp8235
Vis_blanked
p8236
I00
sVend
p8237
V2016-02-21T00:00:00Z
p8238
sVpid
p8239
Vp03j90tk
p8240
sVstart
p8241
V2016-02-20T23:30:00Z
p8242
sVis_repeat
p8243
I01
sVduration
p8244
I1800
sVprogramme
p8245
(dp8246
Vis_legacy_media
p8247
I00
sVtitle
p8248
VLove and the Rest
p8249
sVmedia
p8250
(dp8251
Vexpires
p8252
V2016-03-22T00:00:00Z
p8253
sVavailability
p8254
V30 days left to listen
p8255
sVformat
p8256
Vaudio
p8257
ssVimage
p8258
(dp8259
Vpid
p8260
Vp01lclqb
p8261
ssVavailable_until
p8262
V2016-03-22T00:00:00Z
p8263
sVpid
p8264
Vb070cgkk
p8265
sVis_available_mediaset_pc_sd
p8266
I01
sVshort_synopsis
p8267
VRoger McGough with poetry of love, hate and everything in between on Poetry Please.
p8268
sVfirst_broadcast_date
p8269
V2016-02-14T16:30:00Z
p8270
sVownership
p8271
(dp8272
Vservice
p8273
(dp8274
Vtype
p8275
Vradio
p8276
sVid
p8277
Vbbc_radio_four
p8278
sVkey
p8279
Vradio4
p8280
sVtitle
p8281
VBBC Radio 4
p8282
sssVposition
p8283
NsVduration
p8284
I1800
sVmedia_type
p8285
Vaudio
p8286
sVactual_start
p8287
V2016-02-14T17:03:52Z
p8288
sVtype
p8289
Vepisode
p8290
sVdisplay_titles
p8291
(dp8292
Vsubtitle
p8293
VLove and the Rest
p8294
sVtitle
p8295
VPoetry Please
p8296
ssVprogramme
p8297
(dp8298
Vtitle
p8299
VPoetry Please
p8300
sVimage
p8301
(dp8302
Vpid
p8303
Vp01lclqb
p8304
ssVexpected_child_count
p8305
NsVpid
p8306
Vb006qp7q
p8307
sVfirst_broadcast_date
p8308
V1998-03-22T17:30:00Z
p8309
sVownership
p8310
(dp8311
Vservice
p8312
(dp8313
Vtype
p8314
Vradio
p8315
sVid
p8316
Vbbc_radio_four
p8317
sVkey
p8318
Vradio4
p8319
sVtitle
p8320
VBBC Radio 4
p8321
sssVposition
p8322
NsVtype
p8323
Vbrand
p8324
sssa(dp8325
Vis_blanked
p8326
I00
sVend
p8327
V2016-02-21T00:30:00Z
p8328
sVpid
p8329
Vp03j90tl
p8330
sVstart
p8331
V2016-02-21T00:00:00Z
p8332
sVis_repeat
p8333
I00
sVduration
p8334
I1800
sVprogramme
p8335
(dp8336
Vis_legacy_media
p8337
I00
sVtitle
p8338
V21/02/2016
p8339
sVmedia
p8340
(dp8341
Vexpires
p8342
V2016-03-22T00:30:00Z
p8343
sVavailability
p8344
V30 days left to listen
p8345
sVformat
p8346
Vaudio
p8347
ssVimage
p8348
(dp8349
Vpid
p8350
Vp01lcbf6
p8351
ssVavailable_until
p8352
V2016-03-22T00:30:00Z
p8353
sVpid
p8354
Vb0713ntz
p8355
sVis_available_mediaset_pc_sd
p8356
I01
sVshort_synopsis
p8357
VThe latest national and international news from BBC Radio 4.
p8358
sVfirst_broadcast_date
p8359
V2016-02-21T00:00:00Z
p8360
sVownership
p8361
(dp8362
Vservice
p8363
(dp8364
Vtype
p8365
Vradio
p8366
sVid
p8367
Vbbc_radio_four
p8368
sVkey
p8369
Vradio4
p8370
sVtitle
p8371
VBBC Radio 4
p8372
sssVposition
p8373
NsVduration
p8374
I1800
sVmedia_type
p8375
Vaudio
p8376
sVactual_start
p8377
V2016-02-21T00:34:22Z
p8378
sVtype
p8379
Vepisode
p8380
sVdisplay_titles
p8381
(dp8382
Vsubtitle
p8383
V21/02/2016
p8384
sVtitle
p8385
VMidnight News
p8386
ssVprogramme
p8387
(dp8388
Vtitle
p8389
VMidnight News
p8390
sVimage
p8391
(dp8392
Vpid
p8393
Vp01lcbf6
p8394
ssVexpected_child_count
p8395
NsVpid
p8396
Vb00cs19l
p8397
sVfirst_broadcast_date
p8398
V2007-02-03T00:00:00Z
p8399
sVownership
p8400
(dp8401
Vservice
p8402
(dp8403
Vtype
p8404
Vradio
p8405
sVid
p8406
Vbbc_radio_four
p8407
sVkey
p8408
Vradio4
p8409
sVtitle
p8410
VBBC Radio 4
p8411
sssVposition
p8412
NsVtype
p8413
Vbrand
p8414
sssa(dp8415
Vis_blanked
p8416
I00
sVend
p8417
V2016-02-21T00:48:00Z
p8418
sVpid
p8419
Vp03j90tm
p8420
sVstart
p8421
V2016-02-21T00:30:00Z
p8422
sVis_repeat
p8423
I00
sVduration
p8424
I1080
sVprogramme
p8425
(dp8426
Vis_legacy_media
p8427
I00
sVtitle
p8428
VThe Easter Lilies
p8429
sVmedia
p8430
(dp8431
Vexpires
p8432
V2016-03-22T00:48:00Z
p8433
sVavailability
p8434
V30 days left to listen
p8435
sVformat
p8436
Vaudio
p8437
ssVimage
p8438
(dp8439
Vpid
p8440
Vp03gj5wh
p8441
ssVavailable_until
p8442
V2016-03-22T00:48:00Z
p8443
sVpid
p8444
Vb0713pqt
p8445
sVis_available_mediaset_pc_sd
p8446
I01
sVshort_synopsis
p8447
VJulia McKenzie reads Jane Gardam's story set in an impoverished suburban English church.
p8448
sVfirst_broadcast_date
p8449
V2016-02-21T00:30:00Z
p8450
sVownership
p8451
(dp8452
Vservice
p8453
(dp8454
Vtype
p8455
Vradio
p8456
sVid
p8457
Vbbc_radio_four
p8458
sVkey
p8459
Vradio4
p8460
sVtitle
p8461
VBBC Radio 4
p8462
sssVposition
p8463
NsVduration
p8464
I900
sVmedia_type
p8465
Vaudio
p8466
sVactual_start
p8467
V2016-02-21T00:52:19Z
p8468
sVtype
p8469
Vepisode
p8470
sVdisplay_titles
p8471
(dp8472
Vsubtitle
p8473
VThe Easter Lilies
p8474
sVtitle
p8475
VThe Stories
p8476
ssVprogramme
p8477
(dp8478
Vtitle
p8479
VThe Stories
p8480
sVimage
p8481
(dp8482
Vpid
p8483
Vp03gj5wh
p8484
ssVexpected_child_count
p8485
I3
sVpid
p8486
Vb0701v99
p8487
sVfirst_broadcast_date
p8488
V2016-01-31T00:30:00Z
p8489
sVownership
p8490
(dp8491
Vservice
p8492
(dp8493
Vtype
p8494
Vradio
p8495
sVid
p8496
Vbbc_radio_four
p8497
sVkey
p8498
Vradio4
p8499
sVtitle
p8500
VBBC Radio 4
p8501
sssVposition
p8502
NsVtype
p8503
Vseries
p8504
sssa(dp8505
Vis_blanked
p8506
I00
sVend
p8507
V2016-02-21T01:00:00Z
p8508
sVpid
p8509
Vp03j90tn
p8510
sVstart
p8511
V2016-02-21T00:48:00Z
p8512
sVis_repeat
p8513
I00
sVduration
p8514
I720
sVprogramme
p8515
(dp8516
Vis_legacy_media
p8517
I00
sVtitle
p8518
V21/02/2016
p8519
sVmedia
p8520
(dp8521
Vexpires
p8522
V2016-03-22T01:00:00Z
p8523
sVavailability
p8524
V30 days left to listen
p8525
sVformat
p8526
Vaudio
p8527
ssVimage
p8528
(dp8529
Vpid
p8530
Vp0368m65
p8531
ssVavailable_until
p8532
V2016-03-22T01:00:00Z
p8533
sVpid
p8534
Vb0713nv1
p8535
sVis_available_mediaset_pc_sd
p8536
I01
sVshort_synopsis
p8537
VThe latest shipping forecast.
p8538
sVfirst_broadcast_date
p8539
V2016-02-21T00:48:00Z
p8540
sVownership
p8541
(dp8542
Vservice
p8543
(dp8544
Vtype
p8545
Vradio
p8546
sVid
p8547
Vbbc_radio_four
p8548
sVkey
p8549
Vradio4
p8550
sVtitle
p8551
VBBC Radio 4
p8552
sssVposition
p8553
NsVduration
p8554
I720
sVmedia_type
p8555
Vaudio
p8556
sVactual_start
p8557
V2016-02-21T01:05:58Z
p8558
sVtype
p8559
Vepisode
p8560
sVdisplay_titles
p8561
(dp8562
Vsubtitle
p8563
V21/02/2016
p8564
sVtitle
p8565
VShipping Forecast
p8566
ssVprogramme
p8567
(dp8568
Vtitle
p8569
VShipping Forecast
p8570
sVimage
p8571
(dp8572
Vpid
p8573
Vp0368m65
p8574
ssVexpected_child_count
p8575
NsVpid
p8576
Vb006qfvv
p8577
sVfirst_broadcast_date
p8578
V2006-04-05T00:48:00+01:00
p8579
sVownership
p8580
(dp8581
Vservice
p8582
(dp8583
Vtype
p8584
Vradio
p8585
sVid
p8586
Vbbc_radio_four
p8587
sVkey
p8588
Vradio4
p8589
sVtitle
p8590
VBBC Radio 4
p8591
sssVposition
p8592
NsVtype
p8593
Vbrand
p8594
sssa(dp8595
Vis_blanked
p8596
I00
sVend
p8597
V2016-02-21T05:20:00Z
p8598
sVpid
p8599
Vp03j90tq
p8600
sVstart
p8601
V2016-02-21T01:00:00Z
p8602
sVis_repeat
p8603
I00
sVduration
p8604
I15600
sVprogramme
p8605
(dp8606
Vis_legacy_media
p8607
I00
sVtitle
p8608
V21/02/2016
p8609
sVimage
p8610
(dp8611
Vpid
p8612
Vp01lchw0
p8613
ssVpid
p8614
Vb0713nv3
p8615
sVis_available_mediaset_pc_sd
p8616
I00
sVshort_synopsis
p8617
VBBC Radio 4 joins the BBC World Service.
p8618
sVfirst_broadcast_date
p8619
V2016-02-21T01:00:00Z
p8620
sVownership
p8621
(dp8622
Vservice
p8623
(dp8624
Vtype
p8625
Vradio
p8626
sVid
p8627
Vbbc_world_service
p8628
sVkey
p8629
Vworldserviceradio
p8630
sVtitle
p8631
VBBC World Service
p8632
sssVposition
p8633
NsVduration
p8634
I15600
sVmedia_type
p8635
Vaudio
p8636
sVtype
p8637
Vepisode
p8638
sVdisplay_titles
p8639
(dp8640
Vsubtitle
p8641
V21/02/2016
p8642
sVtitle
p8643
VSelection of BBC World Service Programmes
p8644
ssVprogramme
p8645
(dp8646
Vtitle
p8647
VSelection of BBC World Service Programmes
p8648
sVimage
p8649
(dp8650
Vpid
p8651
Vp01lchw0
p8652
ssVexpected_child_count
p8653
NsVpid
p8654
Vb006s54y
p8655
sVfirst_broadcast_date
p8656
V2007-01-06T01:00:00Z
p8657
sVownership
p8658
(dp8659
Vservice
p8660
(dp8661
Vtype
p8662
Vradio
p8663
sVid
p8664
Vbbc_world_service
p8665
sVkey
p8666
Vworldserviceradio
p8667
sVtitle
p8668
VBBC World Service
p8669
sssVposition
p8670
NsVtype
p8671
Vbrand
p8672
sssa(dp8673
Vis_blanked
p8674
I00
sVend
p8675
V2016-02-21T05:30:00Z
p8676
sVpid
p8677
Vp03j90tr
p8678
sVstart
p8679
V2016-02-21T05:20:00Z
p8680
sVis_repeat
p8681
I00
sVduration
p8682
I600
sVprogramme
p8683
(dp8684
Vis_legacy_media
p8685
I00
sVtitle
p8686
V21/02/2016
p8687
sVmedia
p8688
(dp8689
Vexpires
p8690
V2016-03-22T05:30:00Z
p8691
sVavailability
p8692
V30 days left to listen
p8693
sVformat
p8694
Vaudio
p8695
ssVimage
p8696
(dp8697
Vpid
p8698
Vp0368m65
p8699
ssVavailable_until
p8700
V2016-03-22T05:30:00Z
p8701
sVpid
p8702
Vb0713nv5
p8703
sVis_available_mediaset_pc_sd
p8704
I01
sVshort_synopsis
p8705
VThe latest shipping forecast.
p8706
sVfirst_broadcast_date
p8707
V2016-02-21T05:20:00Z
p8708
sVownership
p8709
(dp8710
Vservice
p8711
(dp8712
Vtype
p8713
Vradio
p8714
sVid
p8715
Vbbc_radio_four
p8716
sVkey
p8717
Vradio4
p8718
sVtitle
p8719
VBBC Radio 4
p8720
sssVposition
p8721
NsVduration
p8722
I600
sVmedia_type
p8723
Vaudio
p8724
sVactual_start
p8725
V2016-02-21T05:34:08Z
p8726
sVtype
p8727
Vepisode
p8728
sVdisplay_titles
p8729
(dp8730
Vsubtitle
p8731
V21/02/2016
p8732
sVtitle
p8733
VShipping Forecast
p8734
ssVprogramme
p8735
(dp8736
Vtitle
p8737
VShipping Forecast
p8738
sVimage
p8739
(dp8740
Vpid
p8741
Vp0368m65
p8742
ssVexpected_child_count
p8743
NsVpid
p8744
Vb006qfvv
p8745
sVfirst_broadcast_date
p8746
V2006-04-05T00:48:00+01:00
p8747
sVownership
p8748
(dp8749
Vservice
p8750
(dp8751
Vtype
p8752
Vradio
p8753
sVid
p8754
Vbbc_radio_four
p8755
sVkey
p8756
Vradio4
p8757
sVtitle
p8758
VBBC Radio 4
p8759
sssVposition
p8760
NsVtype
p8761
Vbrand
p8762
sssa(dp8763
Vis_blanked
p8764
I00
sVend
p8765
V2016-02-21T05:43:00Z
p8766
sVpid
p8767
Vp03j90ts
p8768
sVstart
p8769
V2016-02-21T05:30:00Z
p8770
sVis_repeat
p8771
I00
sVduration
p8772
I780
sVprogramme
p8773
(dp8774
Vis_legacy_media
p8775
I00
sVtitle
p8776
V21/02/2016
p8777
sVmedia
p8778
(dp8779
Vexpires
p8780
V2016-03-22T05:43:00Z
p8781
sVavailability
p8782
V30 days left to listen
p8783
sVformat
p8784
Vaudio
p8785
ssVimage
p8786
(dp8787
Vpid
p8788
Vp01lc375
p8789
ssVavailable_until
p8790
V2016-03-22T05:43:00Z
p8791
sVpid
p8792
Vb0713nv7
p8793
sVis_available_mediaset_pc_sd
p8794
I01
sVshort_synopsis
p8795
VNews from BBC Radio 4.
p8796
sVfirst_broadcast_date
p8797
V2016-02-21T05:30:00Z
p8798
sVownership
p8799
(dp8800
Vservice
p8801
(dp8802
Vtype
p8803
Vradio
p8804
sVid
p8805
Vbbc_radio_four
p8806
sVkey
p8807
Vradio4
p8808
sVtitle
p8809
VBBC Radio 4
p8810
sssVposition
p8811
NsVduration
p8812
I780
sVmedia_type
p8813
Vaudio
p8814
sVactual_start
p8815
V2016-02-21T05:47:10Z
p8816
sVtype
p8817
Vepisode
p8818
sVdisplay_titles
p8819
(dp8820
Vsubtitle
p8821
V21/02/2016
p8822
sVtitle
p8823
VNews Briefing
p8824
ssVprogramme
p8825
(dp8826
Vtitle
p8827
VNews Briefing
p8828
sVimage
p8829
(dp8830
Vpid
p8831
Vp01lc375
p8832
ssVexpected_child_count
p8833
NsVpid
p8834
Vb007rhyn
p8835
sVfirst_broadcast_date
p8836
V2007-02-03T05:30:00Z
p8837
sVownership
p8838
(dp8839
Vservice
p8840
(dp8841
Vtype
p8842
Vradio
p8843
sVid
p8844
Vbbc_radio_four
p8845
sVkey
p8846
Vradio4
p8847
sVtitle
p8848
VBBC Radio 4
p8849
sssVposition
p8850
NsVtype
p8851
Vbrand
p8852
sssa(dp8853
Vis_blanked
p8854
I00
sVend
p8855
V2016-02-21T05:45:00Z
p8856
sVpid
p8857
Vp03j90tw
p8858
sVstart
p8859
V2016-02-21T05:43:00Z
p8860
sVis_repeat
p8861
I00
sVduration
p8862
I120
sVprogramme
p8863
(dp8864
Vis_legacy_media
p8865
I00
sVtitle
p8866
V21/02/2016
p8867
sVmedia
p8868
(dp8869
Vexpires
p8870
NsVavailability
p8871
VAvailable to listen
p8872
sVformat
p8873
Vaudio
p8874
ssVimage
p8875
(dp8876
Vpid
p8877
Vp0230khn
p8878
ssVpid
p8879
Vb0713pqw
p8880
sVis_available_mediaset_pc_sd
p8881
I01
sVshort_synopsis
p8882
VBells from St Martin's Church Desford in Leicester.
p8883
sVfirst_broadcast_date
p8884
V2016-02-21T05:43:00Z
p8885
sVownership
p8886
(dp8887
Vservice
p8888
(dp8889
Vtype
p8890
Vradio
p8891
sVid
p8892
Vbbc_radio_four
p8893
sVkey
p8894
Vradio4
p8895
sVtitle
p8896
VBBC Radio 4
p8897
sssVposition
p8898
NsVduration
p8899
I120
sVmedia_type
p8900
Vaudio
p8901
sVactual_start
p8902
V2016-02-21T05:49:06Z
p8903
sVtype
p8904
Vepisode
p8905
sVdisplay_titles
p8906
(dp8907
Vsubtitle
p8908
V21/02/2016
p8909
sVtitle
p8910
VBells on Sunday
p8911
ssVprogramme
p8912
(dp8913
Vtitle
p8914
VBells on Sunday
p8915
sVimage
p8916
(dp8917
Vpid
p8918
Vp0230khn
p8919
ssVexpected_child_count
p8920
NsVpid
p8921
Vb006sgsh
p8922
sVfirst_broadcast_date
p8923
V2007-01-14T05:43:00Z
p8924
sVownership
p8925
(dp8926
Vservice
p8927
(dp8928
Vtype
p8929
Vradio
p8930
sVid
p8931
Vbbc_radio_four
p8932
sVkey
p8933
Vradio4
p8934
sVtitle
p8935
VBBC Radio 4
p8936
sssVposition
p8937
NsVtype
p8938
Vbrand
p8939
sssa(dp8940
Vis_blanked
p8941
I00
sVend
p8942
V2016-02-21T06:00:00Z
p8943
sVpid
p8944
Vp03j90tx
p8945
sVstart
p8946
V2016-02-21T05:45:00Z
p8947
sVis_repeat
p8948
I01
sVduration
p8949
I900
sVprogramme
p8950
(dp8951
Vis_legacy_media
p8952
I00
sVtitle
p8953
VThe Wilderness
p8954
sVmedia
p8955
(dp8956
Vexpires
p8957
V2016-03-22T06:00:00Z
p8958
sVavailability
p8959
V30 days left to listen
p8960
sVformat
p8961
Vaudio
p8962
ssVimage
p8963
(dp8964
Vpid
p8965
Vp03jbr16
p8966
ssVavailable_until
p8967
V2016-03-22T06:00:00Z
p8968
sVpid
p8969
Vb070fn20
p8970
sVis_available_mediaset_pc_sd
p8971
I01
sVshort_synopsis
p8972
VThe Rev Dr Emma Loveridge takes listeners to her isolated retreat in east Devon.
p8973
sVfirst_broadcast_date
p8974
V2016-02-17T20:45:00Z
p8975
sVownership
p8976
(dp8977
Vservice
p8978
(dp8979
Vtype
p8980
Vradio
p8981
sVid
p8982
Vbbc_radio_four
p8983
sVkey
p8984
Vradio4
p8985
sVtitle
p8986
VBBC Radio 4
p8987
sssVposition
p8988
NsVduration
p8989
I900
sVmedia_type
p8990
Vaudio
p8991
sVactual_start
p8992
V2016-02-17T21:05:45Z
p8993
sVtype
p8994
Vepisode
p8995
sVdisplay_titles
p8996
(dp8997
Vsubtitle
p8998
VThe Wilderness
p8999
sVtitle
p9000
VLent Talks
p9001
ssVprogramme
p9002
(dp9003
Vtitle
p9004
VLent Talks
p9005
sVimage
p9006
(dp9007
Vpid
p9008
Vp01lykp7
p9009
ssVexpected_child_count
p9010
NsVpid
p9011
Vb006xp1x
p9012
sVfirst_broadcast_date
p9013
V2007-03-03T05:45:00Z
p9014
sVownership
p9015
(dp9016
Vservice
p9017
(dp9018
Vtype
p9019
Vradio
p9020
sVid
p9021
Vbbc_radio_four
p9022
sVkey
p9023
Vradio4
p9024
sVtitle
p9025
VBBC Radio 4
p9026
sssVposition
p9027
NsVtype
p9028
Vbrand
p9029
sssa.